	.file	"sum.c"
# GNU C17 (Ubuntu 13.3.0-6ubuntu2~24.04) version 13.3.0 (x86_64-linux-gnu)
#	compiled by GNU C version 13.3.0, GMP version 6.3.0, MPFR version 4.2.1, MPC version 1.3.1, isl version isl-0.26-GMP

# GGC heuristics: --param ggc-min-expand=100 --param ggc-min-heapsize=131072
# options passed: -m32 -mtune=generic -march=i686 -g -fasynchronous-unwind-tables -fstack-protector-strong -fstack-clash-protection
	.text
.Ltext0:
	.file 0 "/home/fekerr/src/compfast/sum_c" "sum.c"
	.section	.rodata
.LC0:
	.string	"argc=%d\n"
.LC1:
	.string	"no guess entered, using %d"
.LC2:
	.string	"argv[1]=%s"
	.text
	.globl	main
	.type	main, @function
main:
.LFB6:
	.file 1 "sum.c"
	.loc 1 9 33
	.cfi_startproc
	leal	4(%esp), %ecx	#,
	.cfi_def_cfa 1, 0
	andl	$-16, %esp	#,
	pushl	-4(%ecx)	#
	pushl	%ebp	#
	movl	%esp, %ebp	#,
	.cfi_escape 0x10,0x5,0x2,0x75,0
	pushl	%esi	#
	pushl	%ebx	#
	pushl	%ecx	#
	.cfi_escape 0xf,0x3,0x75,0x74,0x6
	.cfi_escape 0x10,0x6,0x2,0x75,0x7c
	.cfi_escape 0x10,0x3,0x2,0x75,0x78
	subl	$28, %esp	#,
	call	__x86.get_pc_thunk.bx	#
	addl	$_GLOBAL_OFFSET_TABLE_, %ebx	# tmp82,
	movl	%ecx, %esi	#, tmp98
# sum.c:11:     int NUMBER = GUESS, i, s;
	.loc 1 11 9
	movl	$10000000, -36(%ebp)	#, NUMBER
# sum.c:12:     printf("argc=%d\n", argc);
	.loc 1 12 5
	subl	$8, %esp	#,
	pushl	(%esi)	# argc
	leal	.LC0@GOTOFF(%ebx), %eax	#, tmp89
	pushl	%eax	# tmp89
	call	printf@PLT	#
	addl	$16, %esp	#,
# sum.c:13:     if (argc < 2) {
	.loc 1 13 8
	cmpl	$1, (%esi)	#, argc
	jg	.L2	#,
# sum.c:14:         printf("no guess entered, using %d", NUMBER);
	.loc 1 14 9
	subl	$8, %esp	#,
	pushl	-36(%ebp)	# NUMBER
	leal	.LC1@GOTOFF(%ebx), %eax	#, tmp90
	pushl	%eax	# tmp90
	call	printf@PLT	#
	addl	$16, %esp	#,
	jmp	.L3	#
.L2:
# sum.c:17:         printf("argv[1]=%s", argv[1]);
	.loc 1 17 34
	movl	4(%esi), %eax	# argv, tmp91
	addl	$4, %eax	#, _1
# sum.c:17:         printf("argv[1]=%s", argv[1]);
	.loc 1 17 9
	movl	(%eax), %eax	# *_1, _2
	subl	$8, %esp	#,
	pushl	%eax	# _2
	leal	.LC2@GOTOFF(%ebx), %eax	#, tmp92
	pushl	%eax	# tmp92
	call	printf@PLT	#
	addl	$16, %esp	#,
# sum.c:18:         NUMBER = atoi(argv[1]);
	.loc 1 18 27
	movl	4(%esi), %eax	# argv, tmp93
	addl	$4, %eax	#, _3
# sum.c:18:         NUMBER = atoi(argv[1]);
	.loc 1 18 18
	movl	(%eax), %eax	# *_3, _4
	subl	$12, %esp	#,
	pushl	%eax	# _4
	call	atoi@PLT	#
	addl	$16, %esp	#,
	movl	%eax, -36(%ebp)	# tmp94, NUMBER
.L3:
# sum.c:22:     for (s = i = 0; i < NUMBER; ++i) {
	.loc 1 22 16
	movl	$0, -32(%ebp)	#, i
# sum.c:22:     for (s = i = 0; i < NUMBER; ++i) {
	.loc 1 22 12
	movl	-32(%ebp), %eax	# i, tmp95
	movl	%eax, -28(%ebp)	# tmp95, s
# sum.c:22:     for (s = i = 0; i < NUMBER; ++i) {
	.loc 1 22 5
	jmp	.L4	#
.L5:
# sum.c:23:         s += 1;  // Increment sum
	.loc 1 23 11
	addl	$1, -28(%ebp)	#, s
# sum.c:22:     for (s = i = 0; i < NUMBER; ++i) {
	.loc 1 22 33 discriminator 3
	addl	$1, -32(%ebp)	#, i
.L4:
# sum.c:22:     for (s = i = 0; i < NUMBER; ++i) {
	.loc 1 22 23 discriminator 1
	movl	-32(%ebp), %eax	# i, tmp96
	cmpl	-36(%ebp), %eax	# NUMBER, tmp96
	jl	.L5	#,
# sum.c:27:     return 0;
	.loc 1 27 12
	movl	$0, %eax	#, _19
# sum.c:28: }
	.loc 1 28 1
	leal	-12(%ebp), %esp	#,
	popl	%ecx	#
	.cfi_restore 1
	.cfi_def_cfa 1, 0
	popl	%ebx	#
	.cfi_restore 3
	popl	%esi	#
	.cfi_restore 6
	popl	%ebp	#
	.cfi_restore 5
	leal	-4(%ecx), %esp	#,
	.cfi_def_cfa 4, 4
	ret	
	.cfi_endproc
.LFE6:
	.size	main, .-main
	.section	.text.__x86.get_pc_thunk.bx,"axG",@progbits,__x86.get_pc_thunk.bx,comdat
	.globl	__x86.get_pc_thunk.bx
	.hidden	__x86.get_pc_thunk.bx
	.type	__x86.get_pc_thunk.bx, @function
__x86.get_pc_thunk.bx:
.LFB7:
	.cfi_startproc
	movl	(%esp), %ebx	#,
	ret
	.cfi_endproc
.LFE7:
	.text
.Letext0:
	.file 2 "/usr/include/stdlib.h"
	.file 3 "/usr/include/stdio.h"
	.section	.note.GNU-stack,"",@progbits
