	.text
	.file	"rdtsc_example.34c740512fe9d3e5-cgu.0"
	.section	.text._ZN3std2rt10lang_start17hef94f62860eaa823E,"ax",@progbits
	.hidden	_ZN3std2rt10lang_start17hef94f62860eaa823E
	.globl	_ZN3std2rt10lang_start17hef94f62860eaa823E
	.p2align	4, 0x90
	.type	_ZN3std2rt10lang_start17hef94f62860eaa823E,@function
_ZN3std2rt10lang_start17hef94f62860eaa823E:
.Lfunc_begin0:
	.file	1 "/rustc/90b35a6239c3d8bdabc530a6a0816f7ff89a0aaf/library/std/src" "rt.rs"
	.loc	1 188 0
	.cfi_startproc
	pushq	%rax
	.cfi_def_cfa_offset 16
	movl	%ecx, %r8d
	movq	%rdx, %rcx
.Ltmp0:
	movq	%rsi, %rdx
.Ltmp1:
	.loc	1 195 10 prologue_end
	movq	%rdi, (%rsp)
	.loc	1 194 17
	leaq	.L__unnamed_1(%rip), %rsi
.Ltmp2:
	.loc	1 0 17 is_stmt 0
	movq	%rsp, %rdi
.Ltmp3:
	.loc	1 194 17
	callq	*_ZN3std2rt19lang_start_internal17h1c66660c99c8424cE@GOTPCREL(%rip)
.Ltmp4:
	.loc	1 201 2 epilogue_begin is_stmt 1
	popq	%rcx
	.cfi_def_cfa_offset 8
	retq
.Ltmp5:
.Lfunc_end0:
	.size	_ZN3std2rt10lang_start17hef94f62860eaa823E, .Lfunc_end0-_ZN3std2rt10lang_start17hef94f62860eaa823E
	.cfi_endproc

	.section	".text._ZN3std2rt10lang_start28_$u7b$$u7b$closure$u7d$$u7d$17h696b52da83f75549E","ax",@progbits
	.p2align	4, 0x90
	.type	_ZN3std2rt10lang_start28_$u7b$$u7b$closure$u7d$$u7d$17h696b52da83f75549E,@function
_ZN3std2rt10lang_start28_$u7b$$u7b$closure$u7d$$u7d$17h696b52da83f75549E:
.Lfunc_begin1:
	.loc	1 195 0
	.cfi_startproc
	pushq	%rax
	.cfi_def_cfa_offset 16
.Ltmp6:
	.loc	1 195 70 prologue_end
	movq	(%rdi), %rdi
.Ltmp7:
	.loc	1 195 18 is_stmt 0
	callq	_ZN3std3sys9backtrace28__rust_begin_short_backtrace17h97a98e73875a52c9E
	.loc	1 195 93
	xorl	%eax, %eax
	.loc	1 195 93 epilogue_begin
	popq	%rcx
	.cfi_def_cfa_offset 8
	retq
.Ltmp8:
.Lfunc_end1:
	.size	_ZN3std2rt10lang_start28_$u7b$$u7b$closure$u7d$$u7d$17h696b52da83f75549E, .Lfunc_end1-_ZN3std2rt10lang_start28_$u7b$$u7b$closure$u7d$$u7d$17h696b52da83f75549E
	.cfi_endproc

	.section	.text._ZN3std3sys9backtrace28__rust_begin_short_backtrace17h97a98e73875a52c9E,"ax",@progbits
	.p2align	4, 0x90
	.type	_ZN3std3sys9backtrace28__rust_begin_short_backtrace17h97a98e73875a52c9E,@function
_ZN3std3sys9backtrace28__rust_begin_short_backtrace17h97a98e73875a52c9E:
.Lfunc_begin2:
	.file	2 "/rustc/90b35a6239c3d8bdabc530a6a0816f7ff89a0aaf/library/std/src/sys" "backtrace.rs"
	.loc	2 150 0 is_stmt 1
	.cfi_startproc
	pushq	%rax
	.cfi_def_cfa_offset 16
.Ltmp9:
	.file	3 "/rustc/90b35a6239c3d8bdabc530a6a0816f7ff89a0aaf/library/core/src/ops" "function.rs"
	.loc	3 250 5 prologue_end
	callq	*%rdi
.Ltmp10:
	.file	4 "/rustc/90b35a6239c3d8bdabc530a6a0816f7ff89a0aaf/library/core/src" "hint.rs"
	.loc	4 389 5
	#APP
	#NO_APP
.Ltmp11:
	.loc	2 160 2 epilogue_begin
	popq	%rax
	.cfi_def_cfa_offset 8
	retq
.Ltmp12:
.Lfunc_end2:
	.size	_ZN3std3sys9backtrace28__rust_begin_short_backtrace17h97a98e73875a52c9E, .Lfunc_end2-_ZN3std3sys9backtrace28__rust_begin_short_backtrace17h97a98e73875a52c9E
	.cfi_endproc

	.section	".text._ZN42_$LT$$RF$T$u20$as$u20$core..fmt..Debug$GT$3fmt17h4b05410ac63021adE","ax",@progbits
	.p2align	4, 0x90
	.type	_ZN42_$LT$$RF$T$u20$as$u20$core..fmt..Debug$GT$3fmt17h4b05410ac63021adE,@function
_ZN42_$LT$$RF$T$u20$as$u20$core..fmt..Debug$GT$3fmt17h4b05410ac63021adE:
.Lfunc_begin3:
	.file	5 "/rustc/90b35a6239c3d8bdabc530a6a0816f7ff89a0aaf/library/core/src/fmt" "mod.rs"
	.loc	5 2390 0
	.cfi_startproc
	movq	%rsi, %rdi
.Ltmp13:
	.loc	5 2649 9 prologue_end
	leaq	.L__unnamed_4(%rip), %rsi
.Ltmp14:
	movl	$2, %edx
	jmpq	*_ZN4core3fmt9Formatter3pad17h32c38f34541ead7eE@GOTPCREL(%rip)
.Ltmp15:
.Lfunc_end3:
	.size	_ZN42_$LT$$RF$T$u20$as$u20$core..fmt..Debug$GT$3fmt17h4b05410ac63021adE, .Lfunc_end3-_ZN42_$LT$$RF$T$u20$as$u20$core..fmt..Debug$GT$3fmt17h4b05410ac63021adE
	.cfi_endproc

	.section	".text._ZN44_$LT$$RF$T$u20$as$u20$core..fmt..Display$GT$3fmt17h4b1c5b0c5db0c398E","ax",@progbits
	.p2align	4, 0x90
	.type	_ZN44_$LT$$RF$T$u20$as$u20$core..fmt..Display$GT$3fmt17h4b1c5b0c5db0c398E,@function
_ZN44_$LT$$RF$T$u20$as$u20$core..fmt..Display$GT$3fmt17h4b1c5b0c5db0c398E:
.Lfunc_begin4:
	.loc	5 2390 0
	.cfi_startproc
	movq	%rsi, %rdx
.Ltmp16:
	.loc	5 2390 71 prologue_end
	movq	(%rdi), %rax
	movq	8(%rdi), %rsi
.Ltmp17:
	.loc	5 2390 62 is_stmt 0
	movq	%rax, %rdi
.Ltmp18:
	jmpq	*_ZN42_$LT$str$u20$as$u20$core..fmt..Display$GT$3fmt17h7dd41532bea3c59dE@GOTPCREL(%rip)
.Ltmp19:
.Lfunc_end4:
	.size	_ZN44_$LT$$RF$T$u20$as$u20$core..fmt..Display$GT$3fmt17h4b1c5b0c5db0c398E, .Lfunc_end4-_ZN44_$LT$$RF$T$u20$as$u20$core..fmt..Display$GT$3fmt17h4b1c5b0c5db0c398E
	.cfi_endproc

	.section	".text._ZN4core3ops8function6FnOnce40call_once$u7b$$u7b$vtable.shim$u7d$$u7d$17hdbbab76d57fa2f78E","ax",@progbits
	.p2align	4, 0x90
	.type	_ZN4core3ops8function6FnOnce40call_once$u7b$$u7b$vtable.shim$u7d$$u7d$17hdbbab76d57fa2f78E,@function
_ZN4core3ops8function6FnOnce40call_once$u7b$$u7b$vtable.shim$u7d$$u7d$17hdbbab76d57fa2f78E:
.Lfunc_begin5:
	.loc	3 250 0 is_stmt 1
	.cfi_startproc
	pushq	%rax
	.cfi_def_cfa_offset 16
.Ltmp20:
	.loc	3 250 5 prologue_end
	movq	(%rdi), %rdi
.Ltmp21:
	.loc	1 195 18
	callq	_ZN3std3sys9backtrace28__rust_begin_short_backtrace17h97a98e73875a52c9E
.Ltmp22:
	.loc	3 250 5
	xorl	%eax, %eax
	.loc	3 250 5 epilogue_begin is_stmt 0
	popq	%rcx
	.cfi_def_cfa_offset 8
	retq
.Ltmp23:
.Lfunc_end5:
	.size	_ZN4core3ops8function6FnOnce40call_once$u7b$$u7b$vtable.shim$u7d$$u7d$17hdbbab76d57fa2f78E, .Lfunc_end5-_ZN4core3ops8function6FnOnce40call_once$u7b$$u7b$vtable.shim$u7d$$u7d$17hdbbab76d57fa2f78E
	.cfi_endproc

	.section	".text._ZN4core3ptr103drop_in_place$LT$std..io..Lines$LT$std..io..buffered..bufreader..BufReader$LT$std..fs..File$GT$$GT$$GT$17hf952232902766d22E","ax",@progbits
	.p2align	4, 0x90
	.type	_ZN4core3ptr103drop_in_place$LT$std..io..Lines$LT$std..io..buffered..bufreader..BufReader$LT$std..fs..File$GT$$GT$$GT$17hf952232902766d22E,@function
_ZN4core3ptr103drop_in_place$LT$std..io..Lines$LT$std..io..buffered..bufreader..BufReader$LT$std..fs..File$GT$$GT$$GT$17hf952232902766d22E:
.Lfunc_begin6:
	.file	6 "/rustc/90b35a6239c3d8bdabc530a6a0816f7ff89a0aaf/library/core/src/ptr" "mod.rs"
	.loc	6 574 0 is_stmt 1
	.cfi_startproc
	pushq	%rbx
	.cfi_def_cfa_offset 16
	.cfi_offset %rbx, -16
	movq	%rdi, %rbx
.Ltmp24:
	.loc	6 574 1 prologue_end
	movq	8(%rdi), %rsi
.Ltmp25:
	.file	7 "/rustc/90b35a6239c3d8bdabc530a6a0816f7ff89a0aaf/library/alloc/src" "boxed.rs"
	.loc	7 1678 16
	testq	%rsi, %rsi
	je	.LBB6_2
.Ltmp26:
	.loc	6 574 1
	movq	(%rbx), %rdi
.Ltmp27:
	.file	8 "/rustc/90b35a6239c3d8bdabc530a6a0816f7ff89a0aaf/library/alloc/src" "alloc.rs"
	.loc	8 119 14
	movl	$1, %edx
	callq	*__rust_dealloc@GOTPCREL(%rip)
.Ltmp28:
.LBB6_2:
	.loc	6 574 1
	movl	40(%rbx), %edi
.Ltmp29:
	.file	9 "/rustc/90b35a6239c3d8bdabc530a6a0816f7ff89a0aaf/library/std/src/os/fd" "owned.rs"
	.loc	9 191 25 epilogue_begin
	popq	%rbx
.Ltmp30:
	.cfi_def_cfa_offset 8
	jmpq	*close@GOTPCREL(%rip)
.Ltmp31:
.Lfunc_end6:
	.size	_ZN4core3ptr103drop_in_place$LT$std..io..Lines$LT$std..io..buffered..bufreader..BufReader$LT$std..fs..File$GT$$GT$$GT$17hf952232902766d22E, .Lfunc_end6-_ZN4core3ptr103drop_in_place$LT$std..io..Lines$LT$std..io..buffered..bufreader..BufReader$LT$std..fs..File$GT$$GT$$GT$17hf952232902766d22E
	.cfi_endproc

	.section	".text._ZN4core3ptr78drop_in_place$LT$core..result..Result$LT$usize$C$std..io..error..Error$GT$$GT$17hc6b77c6352508005E","ax",@progbits
	.p2align	4, 0x90
	.type	_ZN4core3ptr78drop_in_place$LT$core..result..Result$LT$usize$C$std..io..error..Error$GT$$GT$17hc6b77c6352508005E,@function
_ZN4core3ptr78drop_in_place$LT$core..result..Result$LT$usize$C$std..io..error..Error$GT$$GT$17hc6b77c6352508005E:
.Lfunc_begin7:
	.loc	6 574 0
	.cfi_startproc
	.cfi_personality 155, DW.ref.rust_eh_personality
	.cfi_lsda 27, .Lexception0
	pushq	%r15
	.cfi_def_cfa_offset 16
	pushq	%r14
	.cfi_def_cfa_offset 24
	pushq	%r12
	.cfi_def_cfa_offset 32
	pushq	%rbx
	.cfi_def_cfa_offset 40
	pushq	%rax
	.cfi_def_cfa_offset 48
	.cfi_offset %rbx, -40
	.cfi_offset %r12, -32
	.cfi_offset %r14, -24
	.cfi_offset %r15, -16
	.loc	6 574 1 prologue_end
	testq	%rdi, %rdi
	je	.LBB7_10
.Ltmp35:
	.file	10 "/rustc/90b35a6239c3d8bdabc530a6a0816f7ff89a0aaf/library/std/src/io/error" "repr_bitpacked.rs"
	.loc	10 257 11
	movl	%esi, %eax
	andl	$3, %eax
	.loc	10 257 5 is_stmt 0
	cmpl	$1, %eax
	jne	.LBB7_10
.Ltmp36:
	.file	11 "/rustc/90b35a6239c3d8bdabc530a6a0816f7ff89a0aaf/library/core/src/ptr" "mut_ptr.rs"
	.loc	11 510 18 is_stmt 1
	leaq	-1(%rsi), %rbx
.Ltmp37:
	.loc	6 574 1
	movq	-1(%rsi), %r14
	movq	7(%rsi), %r12
.Ltmp38:
	.loc	6 574 1 is_stmt 0
	movq	(%r12), %rax
	testq	%rax, %rax
	je	.LBB7_4
.Ltmp39:
.Ltmp32:
	movq	%r14, %rdi
	callq	*%rax
.Ltmp33:
.LBB7_4:
.Ltmp40:
	.file	12 "/rustc/90b35a6239c3d8bdabc530a6a0816f7ff89a0aaf/library/core/src/mem" "mod.rs"
	.loc	12 396 14 is_stmt 1
	movq	8(%r12), %rsi
.Ltmp41:
	.loc	7 1678 16
	testq	%rsi, %rsi
	je	.LBB7_6
.Ltmp42:
	.loc	7 0 0 is_stmt 0
	movq	16(%r12), %rdx
.Ltmp43:
	.loc	8 119 14 is_stmt 1
	movq	%r14, %rdi
	callq	*__rust_dealloc@GOTPCREL(%rip)
.Ltmp44:
.LBB7_6:
	.loc	8 119 14 is_stmt 0
	movl	$24, %esi
	movl	$8, %edx
	movq	%rbx, %rdi
	.loc	8 119 14 epilogue_begin
	addq	$8, %rsp
	.cfi_def_cfa_offset 40
	popq	%rbx
.Ltmp45:
	.cfi_def_cfa_offset 32
	popq	%r12
	.cfi_def_cfa_offset 24
	popq	%r14
	.cfi_def_cfa_offset 16
	popq	%r15
	.cfi_def_cfa_offset 8
	jmpq	*__rust_dealloc@GOTPCREL(%rip)
.Ltmp46:
.LBB7_10:
	.cfi_def_cfa_offset 48
	.loc	6 574 1 epilogue_begin is_stmt 1
	addq	$8, %rsp
	.cfi_def_cfa_offset 40
	popq	%rbx
	.cfi_def_cfa_offset 32
	popq	%r12
	.cfi_def_cfa_offset 24
	popq	%r14
	.cfi_def_cfa_offset 16
	popq	%r15
	.cfi_def_cfa_offset 8
	retq
.LBB7_7:
	.cfi_def_cfa_offset 48
.Ltmp34:
	.loc	6 0 1 is_stmt 0
	movq	%rax, %r15
.Ltmp47:
	.loc	12 396 14 is_stmt 1
	movq	8(%r12), %rsi
.Ltmp48:
	.loc	7 1678 16
	testq	%rsi, %rsi
	je	.LBB7_9
.Ltmp49:
	.loc	7 0 0 is_stmt 0
	movq	16(%r12), %rdx
.Ltmp50:
	.loc	8 119 14 is_stmt 1
	movq	%r14, %rdi
	callq	*__rust_dealloc@GOTPCREL(%rip)
.Ltmp51:
.LBB7_9:
	.loc	8 119 14 is_stmt 0
	movl	$24, %esi
	movl	$8, %edx
	movq	%rbx, %rdi
	callq	*__rust_dealloc@GOTPCREL(%rip)
	movq	%r15, %rdi
	callq	_Unwind_Resume@PLT
.Ltmp52:
.Lfunc_end7:
	.size	_ZN4core3ptr78drop_in_place$LT$core..result..Result$LT$usize$C$std..io..error..Error$GT$$GT$17hc6b77c6352508005E, .Lfunc_end7-_ZN4core3ptr78drop_in_place$LT$core..result..Result$LT$usize$C$std..io..error..Error$GT$$GT$17hc6b77c6352508005E
	.cfi_endproc
	.file	13 "/rustc/90b35a6239c3d8bdabc530a6a0816f7ff89a0aaf/library/core/src/alloc" "layout.rs"
	.section	".gcc_except_table._ZN4core3ptr78drop_in_place$LT$core..result..Result$LT$usize$C$std..io..error..Error$GT$$GT$17hc6b77c6352508005E","a",@progbits
	.p2align	2, 0x0
GCC_except_table7:
.Lexception0:
	.byte	255
	.byte	255
	.byte	1
	.uleb128 .Lcst_end0-.Lcst_begin0
.Lcst_begin0:
	.uleb128 .Ltmp32-.Lfunc_begin7
	.uleb128 .Ltmp33-.Ltmp32
	.uleb128 .Ltmp34-.Lfunc_begin7
	.byte	0
	.uleb128 .Ltmp33-.Lfunc_begin7
	.uleb128 .Lfunc_end7-.Ltmp33
	.byte	0
	.byte	0
.Lcst_end0:
	.p2align	2, 0x0

	.section	".text._ZN4core3ptr81drop_in_place$LT$std..io..buffered..bufreader..BufReader$LT$std..fs..File$GT$$GT$17h9ab421c5ceaad91dE","ax",@progbits
	.p2align	4, 0x90
	.type	_ZN4core3ptr81drop_in_place$LT$std..io..buffered..bufreader..BufReader$LT$std..fs..File$GT$$GT$17h9ab421c5ceaad91dE,@function
_ZN4core3ptr81drop_in_place$LT$std..io..buffered..bufreader..BufReader$LT$std..fs..File$GT$$GT$17h9ab421c5ceaad91dE:
.Lfunc_begin8:
	.loc	6 574 0 is_stmt 1
	.cfi_startproc
	pushq	%rbx
	.cfi_def_cfa_offset 16
	.cfi_offset %rbx, -16
	movq	%rdi, %rbx
.Ltmp53:
	.loc	6 574 1 prologue_end
	movq	8(%rdi), %rsi
.Ltmp54:
	.loc	7 1678 16
	testq	%rsi, %rsi
	je	.LBB8_2
.Ltmp55:
	.loc	6 574 1
	movq	(%rbx), %rdi
.Ltmp56:
	.loc	8 119 14
	movl	$1, %edx
	callq	*__rust_dealloc@GOTPCREL(%rip)
.Ltmp57:
.LBB8_2:
	.loc	6 574 1
	movl	40(%rbx), %edi
.Ltmp58:
	.loc	9 191 25 epilogue_begin
	popq	%rbx
.Ltmp59:
	.cfi_def_cfa_offset 8
	jmpq	*close@GOTPCREL(%rip)
.Ltmp60:
.Lfunc_end8:
	.size	_ZN4core3ptr81drop_in_place$LT$std..io..buffered..bufreader..BufReader$LT$std..fs..File$GT$$GT$17h9ab421c5ceaad91dE, .Lfunc_end8-_ZN4core3ptr81drop_in_place$LT$std..io..buffered..bufreader..BufReader$LT$std..fs..File$GT$$GT$17h9ab421c5ceaad91dE
	.cfi_endproc

	.section	".text.unlikely._ZN4core3str7pattern13simd_contains28_$u7b$$u7b$closure$u7d$$u7d$17hda28f5e83485fd72E","ax",@progbits
	.p2align	4, 0x90
	.type	_ZN4core3str7pattern13simd_contains28_$u7b$$u7b$closure$u7d$$u7d$17hda28f5e83485fd72E,@function
_ZN4core3str7pattern13simd_contains28_$u7b$$u7b$closure$u7d$$u7d$17hda28f5e83485fd72E:
.Lfunc_begin9:
	.file	14 "/rustc/90b35a6239c3d8bdabc530a6a0816f7ff89a0aaf/library/core/src/str" "pattern.rs"
	.loc	14 1796 0
	.cfi_startproc
	testw	%dx, %dx
	sete	%al
.Ltmp61:
	.loc	14 1797 12 prologue_end
	orb	%cl, %al
	je	.LBB9_3
.Ltmp62:
.LBB9_1:
	.loc	14 0 12 is_stmt 0
	xorl	%eax, %eax
.Ltmp63:
.LBB9_2:
	.loc	14 1818 6 is_stmt 1
	retq
.Ltmp64:
.LBB9_3:
	.loc	14 0 6 is_stmt 0
	movq	(%rdi), %rax
	movq	16(%rdi), %r8
.Ltmp65:
	.loc	14 1804 15 is_stmt 1
	addq	%rax, %rsi
.Ltmp66:
	incq	%rsi
	movq	24(%rdi), %rdi
	cmpq	$4, %rdi
	jae	.LBB9_12
	jmp	.LBB9_4
.Ltmp67:
	.p2align	4, 0x90
.LBB9_16:
	.file	15 "/rustc/90b35a6239c3d8bdabc530a6a0816f7ff89a0aaf/library/core/src/ptr" "const_ptr.rs"
	.loc	15 1270 18
	movl	(%rax), %eax
.Ltmp68:
	.loc	14 1940 9
	cmpl	-4(%r8,%rdi), %eax
.Ltmp69:
	.loc	14 1811 20
	je	.LBB9_17
.Ltmp70:
.LBB9_11:
	.loc	14 1815 21
	movw	$-2, %ax
	rolw	%cl, %ax
.Ltmp71:
	.loc	14 1804 15
	andw	%ax, %dx
.Ltmp72:
	je	.LBB9_1
.Ltmp73:
.LBB9_12:
	.file	16 "/rustc/90b35a6239c3d8bdabc530a6a0816f7ff89a0aaf/library/core/src/num" "uint_macros.rs"
	.loc	16 162 20
	rep		bsfl	%edx, %ecx
.Ltmp74:
	.file	17 "/rustc/90b35a6239c3d8bdabc530a6a0816f7ff89a0aaf/library/core/src/slice" "index.rs"
	.loc	17 117 14
	leaq	(%rsi,%rcx), %r9
.Ltmp75:
	.loc	15 921 18
	leaq	(%rdi,%r9), %rax
	addq	$-4, %rax
.Ltmp76:
	.loc	14 1929 15
	cmpq	%r9, %rax
	jbe	.LBB9_16
.Ltmp77:
	.loc	14 0 15 is_stmt 0
	movq	%r8, %r10
.Ltmp78:
	.p2align	4, 0x90
.LBB9_14:
	.loc	15 1270 18 is_stmt 1
	movl	(%r9), %r11d
.Ltmp79:
	.loc	14 1932 16
	cmpl	(%r10), %r11d
	jne	.LBB9_11
.Ltmp80:
	.loc	15 921 18
	addq	$4, %r9
.Ltmp81:
	.loc	15 921 18 is_stmt 0
	addq	$4, %r10
.Ltmp82:
	.loc	14 1929 15 is_stmt 1
	cmpq	%rax, %r9
	jb	.LBB9_14
	jmp	.LBB9_16
.Ltmp83:
	.p2align	4, 0x90
.LBB9_10:
	.loc	14 1815 21
	movw	$-2, %ax
	rolw	%cl, %ax
.Ltmp84:
	.loc	14 1804 15
	andw	%ax, %dx
.Ltmp85:
	je	.LBB9_1
.Ltmp86:
.LBB9_4:
	.loc	14 0 15 is_stmt 0
	movb	$1, %al
.Ltmp87:
	testq	%rdi, %rdi
.Ltmp88:
	.file	18 "/rustc/90b35a6239c3d8bdabc530a6a0816f7ff89a0aaf/library/core/src/iter/adapters" "zip.rs"
	.loc	18 309 12 is_stmt 1
	je	.LBB9_2
.Ltmp89:
	.loc	14 0 0 is_stmt 0
	rep		bsfl	%edx, %ecx
.Ltmp90:
	.loc	14 1896 15 is_stmt 1
	movzbl	(%rsi,%rcx), %r9d
.Ltmp91:
	.loc	14 1897 16
	cmpb	(%r8), %r9b
	jne	.LBB9_10
.Ltmp92:
	.loc	14 0 16 is_stmt 0
	cmpq	$1, %rdi
.Ltmp93:
	.loc	18 309 12 is_stmt 1
	je	.LBB9_2
.Ltmp94:
	.loc	14 1896 15
	movzbl	1(%rsi,%rcx), %r9d
.Ltmp95:
	.loc	14 1897 16
	cmpb	1(%r8), %r9b
	jne	.LBB9_10
.Ltmp96:
	.loc	14 0 16 is_stmt 0
	cmpq	$2, %rdi
.Ltmp97:
	.loc	18 309 12 is_stmt 1
	je	.LBB9_2
.Ltmp98:
	.loc	18 0 12 is_stmt 0
	cmpq	$3, %rdi
	setne	%r9b
.Ltmp99:
	.loc	14 1896 15 is_stmt 1
	movzbl	2(%rsi,%rcx), %r10d
.Ltmp100:
	.loc	14 1897 16
	cmpb	2(%r8), %r10b
	setne	%r10b
.Ltmp101:
	orb	%r9b, %r10b
	cmpb	$1, %r10b
	je	.LBB9_10
	jmp	.LBB9_2
.Ltmp102:
.LBB9_17:
	.loc	14 0 16 is_stmt 0
	movb	$1, %al
	.loc	14 1818 6 is_stmt 1
	retq
.Ltmp103:
.Lfunc_end9:
	.size	_ZN4core3str7pattern13simd_contains28_$u7b$$u7b$closure$u7d$$u7d$17hda28f5e83485fd72E, .Lfunc_end9-_ZN4core3str7pattern13simd_contains28_$u7b$$u7b$closure$u7d$$u7d$17hda28f5e83485fd72E
	.cfi_endproc
	.file	19 "/rustc/90b35a6239c3d8bdabc530a6a0816f7ff89a0aaf/library/core/src/macros" "mod.rs"
	.file	20 "/rustc/90b35a6239c3d8bdabc530a6a0816f7ff89a0aaf/library/core/src/slice" "mod.rs"

	.section	".text._ZN55_$LT$$RF$str$u20$as$u20$core..str..pattern..Pattern$GT$15is_contained_in17hf8206fecb7d2b9a9E","ax",@progbits
	.p2align	4, 0x90
	.type	_ZN55_$LT$$RF$str$u20$as$u20$core..str..pattern..Pattern$GT$15is_contained_in17hf8206fecb7d2b9a9E,@function
_ZN55_$LT$$RF$str$u20$as$u20$core..str..pattern..Pattern$GT$15is_contained_in17hf8206fecb7d2b9a9E:
.Lfunc_begin10:
	.loc	14 967 0
	.cfi_startproc
	pushq	%rbp
	.cfi_def_cfa_offset 16
	pushq	%r15
	.cfi_def_cfa_offset 24
	pushq	%r14
	.cfi_def_cfa_offset 32
	pushq	%r13
	.cfi_def_cfa_offset 40
	pushq	%r12
	.cfi_def_cfa_offset 48
	pushq	%rbx
	.cfi_def_cfa_offset 56
	subq	$280, %rsp
	.cfi_def_cfa_offset 336
	.cfi_offset %rbx, -56
	.cfi_offset %r12, -48
	.cfi_offset %r13, -40
	.cfi_offset %r14, -32
	.cfi_offset %r15, -24
	.cfi_offset %rbp, -16
	movq	%rdx, %r15
	movq	%rsi, %r12
	movq	%rdi, %rbp
.Ltmp104:
	.file	21 "/rustc/90b35a6239c3d8bdabc530a6a0816f7ff89a0aaf/library/core/src" "cmp.rs"
	.loc	21 1733 21 prologue_end
	cmpq	%rcx, %rsi
.Ltmp105:
	.loc	14 972 9
	jae	.LBB10_4
.Ltmp106:
	.loc	14 0 9 is_stmt 0
	movq	%rcx, %r14
.Ltmp107:
	.loc	14 1763 23 is_stmt 1
	movzbl	(%rbp), %eax
.Ltmp108:
	.loc	14 1764 28
	leaq	-1(%r12), %rsi
.Ltmp109:
	.loc	14 1767 34
	cmpq	$2, %r12
	jne	.LBB10_6
.Ltmp110:
	.loc	14 1784 8
	cmpq	$17, %r14
	jb	.LBB10_11
.Ltmp111:
	.loc	14 1789 44
	movzbl	1(%rbp), %ecx
	movl	$1, %r13d
	jmp	.LBB10_39
.Ltmp112:
.LBB10_4:
	.file	22 "/rustc/90b35a6239c3d8bdabc530a6a0816f7ff89a0aaf/library/core/src/slice" "cmp.rs"
	.loc	22 83 12
	jne	.LBB10_16
.Ltmp113:
	.loc	22 91 13
	movq	%rbp, %rdi
	movq	%r15, %rsi
	movq	%r12, %rdx
	callq	*bcmp@GOTPCREL(%rip)
.Ltmp114:
	testl	%eax, %eax
	sete	%r8b
	jmp	.LBB10_101
.Ltmp115:
.LBB10_6:
	.loc	22 0 13 is_stmt 0
	xorl	%edx, %edx
.Ltmp116:
	.loc	16 1809 13 is_stmt 1
	movq	%r12, %rcx
	subq	$4, %rcx
	cmovaeq	%rcx, %rdx
	movq	%rsi, %r13
.Ltmp117:
	.p2align	4, 0x90
.LBB10_7:
	.loc	21 1720 52
	leaq	1(%r13), %rcx
	cmpq	%rcx, %rdx
.Ltmp118:
	.file	23 "/rustc/90b35a6239c3d8bdabc530a6a0816f7ff89a0aaf/library/core/src/iter" "range.rs"
	.loc	23 797 12
	jae	.LBB10_17
.Ltmp119:
	.loc	14 1774 73
	cmpq	%r12, %r13
	jae	.LBB10_102
.Ltmp120:
	movzbl	(%rbp,%r13), %ecx
.Ltmp121:
	.file	24 "/rustc/90b35a6239c3d8bdabc530a6a0816f7ff89a0aaf/library/core/src/iter/traits" "double_ended.rs"
	.loc	24 238 21
	decq	%r13
.Ltmp122:
	.loc	14 1774 73
	cmpb	%al, %cl
.Ltmp123:
	.loc	24 238 21
	je	.LBB10_7
.Ltmp124:
	.loc	14 1784 25
	leaq	15(%r12), %rdx
	.loc	14 1784 8 is_stmt 0
	cmpq	%r14, %rdx
	jbe	.LBB10_38
.Ltmp125:
.LBB10_11:
	.loc	22 91 13 is_stmt 1
	movq	%r15, %rdi
	movq	%rbp, %rsi
.Ltmp126:
	movq	%r12, %rdx
	callq	*bcmp@GOTPCREL(%rip)
.Ltmp127:
	.loc	22 0 13 is_stmt 0
	movb	$1, %r8b
	.loc	22 91 13
	testl	%eax, %eax
.Ltmp128:
	.file	25 "/rustc/90b35a6239c3d8bdabc530a6a0816f7ff89a0aaf/library/core/src/iter/traits" "iterator.rs"
	.loc	25 2406 21 is_stmt 1
	je	.LBB10_101
.Ltmp129:
	.file	26 "/rustc/90b35a6239c3d8bdabc530a6a0816f7ff89a0aaf/library/core/src/slice" "iter.rs"
	.loc	26 1354 12
	incq	%r15
.Ltmp130:
	decq	%r14
.Ltmp131:
	.loc	26 0 12 is_stmt 0
	movq	bcmp@GOTPCREL(%rip), %rbx
.Ltmp132:
	.p2align	4, 0x90
.LBB10_13:
	.loc	26 1354 12
	cmpq	%r12, %r14
	jb	.LBB10_16
.Ltmp133:
	.loc	22 91 13 is_stmt 1
	movq	%r15, %rdi
	movq	%rbp, %rsi
	movq	%r12, %rdx
	callq	*%rbx
.Ltmp134:
	.loc	25 2406 21
	incq	%r15
.Ltmp135:
	decq	%r14
.Ltmp136:
	.loc	22 91 13
	testl	%eax, %eax
.Ltmp137:
	.loc	25 2406 21
	jne	.LBB10_13
.Ltmp138:
.LBB10_100:
	.loc	25 0 21 is_stmt 0
	movb	$1, %r8b
	jmp	.LBB10_101
.LBB10_17:
.Ltmp139:
	leaq	104(%rsp), %rdi
.Ltmp140:
	.loc	14 956 9 is_stmt 1
	movq	%r15, %rsi
	movq	%r14, %rdx
	movq	%rbp, %rcx
	movq	%r12, %r8
	callq	*_ZN4core3str7pattern11StrSearcher3new17hcf5f0543864ae087E@GOTPCREL(%rip)
.Ltmp141:
	.loc	14 1143 9
	testb	$1, 104(%rsp)
	je	.LBB10_36
.Ltmp142:
	.loc	14 1152 31
	movq	160(%rsp), %r11
.Ltmp143:
	.loc	14 0 0 is_stmt 0
	movq	176(%rsp), %rdx
	movq	200(%rsp), %rax
.Ltmp144:
	.loc	14 1438 27 is_stmt 1
	leaq	-1(%rax), %r9
.Ltmp145:
	.loc	14 0 0 is_stmt 0
	movq	184(%rsp), %rsi
	movq	192(%rsp), %r10
.Ltmp146:
	.loc	14 1152 31 is_stmt 1
	cmpq	$-1, %r11
.Ltmp147:
	.loc	14 1155 20
	je	.LBB10_79
.Ltmp148:
	.loc	14 0 20 is_stmt 0
	movq	144(%rsp), %rdi
.Ltmp149:
	.loc	14 1443 48 is_stmt 1
	leaq	(%rdi,%r9), %rcx
.Ltmp150:
	.loc	17 255 12
	cmpq	%rsi, %rcx
	jae	.LBB10_16
.Ltmp151:
	.loc	17 0 12 is_stmt 0
	movq	136(%rsp), %rbx
	movq	112(%rsp), %r14
.Ltmp152:
	movq	128(%rsp), %r8
	movq	%rax, %r12
.Ltmp153:
	movq	%r8, 16(%rsp)
	subq	%r8, %r12
.Ltmp154:
.LBB10_21:
	.loc	14 1456 17 is_stmt 1
	movzbl	(%rdx,%rcx), %ecx
	btq	%rcx, %rbx
	jae	.LBB10_27
.Ltmp155:
	.loc	14 1466 20
	cmpq	%r11, %r14
	movq	%r11, %rcx
	cmovaq	%r14, %rcx
.Ltmp156:
	.loc	14 1467 13
	leaq	(%rdx,%rdi), %r8
	movq	%rcx, %r13
.Ltmp157:
	.p2align	4, 0x90
.LBB10_23:
	.loc	21 1720 52
	cmpq	%rax, %r13
.Ltmp158:
	.loc	23 752 12
	jae	.LBB10_30
.Ltmp159:
	.loc	14 1468 33
	leaq	(%rdi,%r13), %rbp
	cmpq	%rsi, %rbp
	jae	.LBB10_103
.Ltmp160:
	.loc	16 573 17
	leaq	1(%r13), %rbp
.Ltmp161:
	.loc	14 1468 20
	movzbl	(%r10,%r13), %r15d
	cmpb	(%r8,%r13), %r15b
	movq	%rbp, %r13
.Ltmp162:
	je	.LBB10_23
.Ltmp163:
	.loc	14 1469 38
	subq	%r14, %rdi
	addq	%rbp, %rdi
	jmp	.LBB10_28
.Ltmp164:
.LBB10_27:
	.loc	14 1457 17
	addq	%rax, %rdi
.Ltmp165:
.LBB10_28:
	.loc	14 0 17 is_stmt 0
	xorl	%r11d, %r11d
.Ltmp166:
.LBB10_29:
	.loc	14 1443 48 is_stmt 1
	leaq	(%rdi,%r9), %rcx
.Ltmp167:
	.loc	14 0 48 is_stmt 0
	xorl	%r8d, %r8d
.Ltmp168:
	.loc	17 255 12 is_stmt 1
	cmpq	%rsi, %rcx
	jb	.LBB10_21
	jmp	.LBB10_101
.Ltmp169:
.LBB10_30:
	.loc	17 0 12 is_stmt 0
	movq	%r14, %rcx
.Ltmp170:
	.p2align	4, 0x90
.LBB10_31:
	.loc	21 1720 52 is_stmt 1
	cmpq	%rcx, %r11
.Ltmp171:
	.loc	23 797 12
	jae	.LBB10_100
.Ltmp172:
	.loc	16 765 17
	decq	%rcx
.Ltmp173:
	.loc	14 1480 20
	cmpq	%rax, %rcx
	jae	.LBB10_108
.Ltmp174:
	.loc	14 1480 42 is_stmt 0
	leaq	(%rcx,%rdi), %r8
	.loc	14 1480 33
	cmpq	%rsi, %r8
	jae	.LBB10_104
.Ltmp175:
	.loc	14 1480 20
	movzbl	(%r10,%rcx), %ebp
	cmpb	(%rdx,%r8), %bpl
	je	.LBB10_31
.Ltmp176:
	.loc	14 1481 21 is_stmt 1
	addq	16(%rsp), %rdi
	movq	%r12, %r11
	jmp	.LBB10_29
.Ltmp177:
.LBB10_36:
	.loc	14 1093 20
	cmpb	$0, 130(%rsp)
	jne	.LBB10_16
.Ltmp178:
	.loc	14 0 20 is_stmt 0
	movq	112(%rsp), %rdx
	movq	176(%rsp), %rdi
	movq	184(%rsp), %rcx
	.loc	14 1097 32 is_stmt 1
	movzbl	128(%rsp), %r8d
	.loc	14 1093 20
	jmp	.LBB10_63
.Ltmp179:
	.p2align	4, 0x90
.LBB10_62:
	.loc	14 0 0 is_stmt 0
	xorb	$1, %r8b
.Ltmp180:
	.loc	14 1107 25 is_stmt 1
	addq	%rsi, %rdx
.Ltmp181:
.LBB10_63:
	.file	27 "/rustc/90b35a6239c3d8bdabc530a6a0816f7ff89a0aaf/library/core/src/str" "mod.rs"
	.loc	27 194 12
	testq	%rdx, %rdx
	je	.LBB10_67
.Ltmp182:
	.loc	17 255 12
	cmpq	%rcx, %rdx
	jae	.LBB10_66
.Ltmp183:
	.file	28 "/rustc/90b35a6239c3d8bdabc530a6a0816f7ff89a0aaf/library/core/src/num" "mod.rs"
	.loc	28 1094 9
	cmpb	$-65, (%rdi,%rdx)
.Ltmp184:
	.file	29 "/rustc/90b35a6239c3d8bdabc530a6a0816f7ff89a0aaf/library/core/src/str" "traits.rs"
	.loc	29 502 12
	jg	.LBB10_67
	jmp	.LBB10_106
.Ltmp185:
.LBB10_66:
	jne	.LBB10_106
.Ltmp186:
.LBB10_67:
	.file	30 "/rustc/90b35a6239c3d8bdabc530a6a0816f7ff89a0aaf/library/core/src/ptr" "non_null.rs"
	.loc	30 1709 9
	cmpq	%rcx, %rdx
.Ltmp187:
	.file	31 "/rustc/90b35a6239c3d8bdabc530a6a0816f7ff89a0aaf/library/core/src/slice/iter" "macros.rs"
	.loc	31 25 86
	je	.LBB10_97
.Ltmp188:
	.file	32 "/rustc/90b35a6239c3d8bdabc530a6a0816f7ff89a0aaf/library/core/src/str" "validations.rs"
	.loc	32 37 13
	movzbl	(%rdi,%rdx), %eax
.Ltmp189:
	.loc	32 38 8
	testb	%al, %al
	jns	.LBB10_75
.Ltmp190:
	.loc	32 11 5
	movl	%eax, %esi
	andl	$31, %esi
.Ltmp191:
	.loc	32 0 5 is_stmt 0
	movzbl	1(%rdi,%rdx), %r9d
.Ltmp192:
	.loc	32 17 17 is_stmt 1
	andl	$63, %r9d
.Ltmp193:
	.loc	32 50 8
	cmpb	$-33, %al
	jbe	.LBB10_72
.Ltmp194:
	.loc	32 0 8 is_stmt 0
	movq	%r8, %r10
	movzbl	2(%rdi,%rdx), %r8d
.Ltmp195:
	.loc	32 17 5 is_stmt 1
	shll	$6, %r9d
.Ltmp196:
	.loc	32 17 17 is_stmt 0
	andl	$63, %r8d
	.loc	32 17 5
	orl	%r9d, %r8d
.Ltmp197:
	.loc	32 58 12 is_stmt 1
	cmpb	$-16, %al
	jb	.LBB10_73
.Ltmp198:
	.loc	32 0 12 is_stmt 0
	movzbl	3(%rdi,%rdx), %eax
.Ltmp199:
	.loc	32 64 18 is_stmt 1
	andl	$7, %esi
.Ltmp200:
	shll	$18, %esi
.Ltmp201:
	.loc	32 17 5
	shll	$6, %r8d
.Ltmp202:
	.loc	32 17 17 is_stmt 0
	andl	$63, %eax
	.loc	32 17 5
	orl	%r8d, %eax
.Ltmp203:
	.loc	32 64 13 is_stmt 1
	orl	%esi, %eax
.Ltmp204:
	.loc	32 0 13 is_stmt 0
	jmp	.LBB10_74
.Ltmp205:
.LBB10_72:
	shll	$6, %esi
.Ltmp206:
	orl	%r9d, %esi
.Ltmp207:
	movl	%esi, %eax
.Ltmp208:
	.loc	32 50 8 is_stmt 1
	jmp	.LBB10_75
.Ltmp209:
.LBB10_73:
	.loc	32 0 0 is_stmt 0
	shll	$12, %esi
.Ltmp210:
	orl	%esi, %r8d
.Ltmp211:
	movl	%r8d, %eax
.Ltmp212:
.LBB10_74:
	movq	%r10, %r8
.Ltmp213:
	.p2align	4, 0x90
.LBB10_75:
	.loc	14 1101 26 is_stmt 1
	testb	$1, %r8b
	jne	.LBB10_100
.Ltmp214:
	.loc	14 0 26 is_stmt 0
	movl	$1, %esi
.Ltmp215:
	.file	33 "/rustc/90b35a6239c3d8bdabc530a6a0816f7ff89a0aaf/library/core/src/char" "methods.rs"
	.loc	33 1747 9 is_stmt 1
	cmpl	$128, %eax
	jb	.LBB10_62
.Ltmp216:
	.loc	33 0 9 is_stmt 0
	movl	$2, %esi
	.loc	33 1748 9 is_stmt 1
	cmpl	$2048, %eax
	jb	.LBB10_62
.Ltmp217:
	.loc	33 1749 9
	cmpl	$65536, %eax
	.loc	33 0 0 is_stmt 0
	movl	$4, %esi
	sbbq	$0, %rsi
	jmp	.LBB10_62
.Ltmp218:
.LBB10_38:
	.loc	14 1784 8 is_stmt 1
	incq	%r13
.Ltmp219:
.LBB10_39:
	.file	34 "/rustc/90b35a6239c3d8bdabc530a6a0816f7ff89a0aaf/library/core/src/../../portable-simd/crates/core_simd/src" "swizzle.rs"
	.loc	34 90 13
	movzbl	%al, %eax
.Ltmp220:
	movd	%eax, %xmm0
	punpcklbw	%xmm0, %xmm0
	pshuflw	$0, %xmm0, %xmm0
	pshufd	$0, %xmm0, %xmm2
.Ltmp221:
	.loc	34 90 13 is_stmt 0
	movzbl	%cl, %eax
	movd	%eax, %xmm0
	punpcklbw	%xmm0, %xmm0
	pshuflw	$0, %xmm0, %xmm0
	pshufd	$0, %xmm0, %xmm3
.Ltmp222:
	.loc	17 117 14 is_stmt 1
	incq	%rbp
.Ltmp223:
	.loc	14 1796 5
	movq	%r15, 104(%rsp)
	movq	%r14, 112(%rsp)
	movq	%rbp, 120(%rsp)
	movq	%rsi, 248(%rsp)
.Ltmp224:
	movq	%rsi, 128(%rsp)
.Ltmp225:
	.loc	14 0 5 is_stmt 0
	leaq	63(%r12), %rcx
.Ltmp226:
	.loc	14 1841 11 is_stmt 1
	cmpq	%r14, %rcx
	movdqa	%xmm2, 16(%rsp)
	movdqa	%xmm3, 48(%rsp)
.Ltmp227:
	jae	.LBB10_51
.Ltmp228:
	.loc	14 1841 75 is_stmt 0
	leaq	(%r15,%r13), %rbx
	addq	$48, %rbx
	xorl	%ebp, %ebp
.Ltmp229:
	.loc	14 0 75
	xorl	%r8d, %r8d
	movq	%rcx, 40(%rsp)
.Ltmp230:
	.p2align	4, 0x90
.LBB10_41:
	.loc	14 1841 75
	testb	$1, %r8b
	jne	.LBB10_52
.Ltmp231:
	.loc	15 1270 18 is_stmt 1
	movdqu	(%r15,%rbp), %xmm0
.Ltmp232:
	movdqu	16(%r15,%rbp), %xmm8
.Ltmp233:
	movdqu	32(%r15,%rbp), %xmm6
.Ltmp234:
	movdqu	48(%r15,%rbp), %xmm4
.Ltmp235:
	.file	35 "/rustc/90b35a6239c3d8bdabc530a6a0816f7ff89a0aaf/library/core/src/../../portable-simd/crates/core_simd/src/simd/cmp" "eq.rs"
	.loc	35 33 51
	pcmpeqb	%xmm2, %xmm0
.Ltmp236:
	.loc	15 1270 18
	movdqu	-48(%rbx,%rbp), %xmm1
.Ltmp237:
	movdqu	-32(%rbx,%rbp), %xmm9
.Ltmp238:
	movdqu	-16(%rbx,%rbp), %xmm7
.Ltmp239:
	movdqu	(%rbx,%rbp), %xmm5
.Ltmp240:
	.loc	14 1844 13
	pcmpeqb	%xmm3, %xmm1
	pand	%xmm0, %xmm1
	pmovmskb	%xmm1, %edx
.Ltmp241:
	.loc	14 1848 16
	testl	%edx, %edx
	jne	.LBB10_47
.Ltmp242:
.LBB10_43:
	.loc	14 0 0 is_stmt 0
	pcmpeqb	%xmm2, %xmm8
	pcmpeqb	%xmm3, %xmm9
	pand	%xmm8, %xmm9
	pmovmskb	%xmm9, %edx
.Ltmp243:
	.loc	14 1848 16
	testw	%dx, %dx
	jne	.LBB10_48
.Ltmp244:
.LBB10_44:
	.loc	14 0 0
	pcmpeqb	%xmm2, %xmm6
	pcmpeqb	%xmm3, %xmm7
	pand	%xmm6, %xmm7
	pmovmskb	%xmm7, %edx
.Ltmp245:
	.loc	14 1848 16
	testw	%dx, %dx
	jne	.LBB10_49
.Ltmp246:
.LBB10_45:
	.loc	14 0 0
	pcmpeqb	%xmm2, %xmm4
	pcmpeqb	%xmm3, %xmm5
	pand	%xmm4, %xmm5
	pmovmskb	%xmm5, %edx
.Ltmp247:
	.loc	14 1848 16
	testw	%dx, %dx
	jne	.LBB10_50
.Ltmp248:
.LBB10_46:
	.loc	14 1841 11 is_stmt 1
	leaq	(%rcx,%rbp), %rax
	addq	$64, %rax
.Ltmp249:
	.loc	14 1852 9
	addq	$64, %rbp
.Ltmp250:
	.loc	14 1841 11
	cmpq	%r14, %rax
	jb	.LBB10_41
	jmp	.LBB10_52
.Ltmp251:
.LBB10_47:
	.loc	14 1849 27
	leaq	104(%rsp), %rdi
	movq	%rbp, %rsi
	xorl	%ecx, %ecx
	movdqa	%xmm4, 80(%rsp)
	movdqa	%xmm5, 64(%rsp)
	movdqa	%xmm6, 224(%rsp)
	movdqa	%xmm7, 208(%rsp)
	movdqa	%xmm8, (%rsp)
	movdqa	%xmm9, 256(%rsp)
	callq	_ZN4core3str7pattern13simd_contains28_$u7b$$u7b$closure$u7d$$u7d$17hda28f5e83485fd72E
.Ltmp252:
	.loc	14 0 27 is_stmt 0
	movdqa	256(%rsp), %xmm9
	movdqa	(%rsp), %xmm8
	movdqa	208(%rsp), %xmm7
	movdqa	224(%rsp), %xmm6
	movdqa	64(%rsp), %xmm5
	movdqa	80(%rsp), %xmm4
	movq	40(%rsp), %rcx
	movdqa	48(%rsp), %xmm3
	movdqa	16(%rsp), %xmm2
	.loc	14 1849 27
	movl	%eax, %r8d
.Ltmp253:
	.loc	14 1848 13 is_stmt 1
	jmp	.LBB10_43
.Ltmp254:
.LBB10_48:
	.loc	14 1849 64
	leaq	16(%rbp), %rsi
	.loc	14 1849 27 is_stmt 0
	movzbl	%r8b, %r8d
	movq	%r8, (%rsp)
	movl	%r8d, %ecx
	andl	$1, %ecx
	leaq	104(%rsp), %rdi
	movdqa	%xmm4, 80(%rsp)
	movdqa	%xmm5, 64(%rsp)
	movdqa	%xmm6, 224(%rsp)
	movdqa	%xmm7, 208(%rsp)
	callq	_ZN4core3str7pattern13simd_contains28_$u7b$$u7b$closure$u7d$$u7d$17hda28f5e83485fd72E
.Ltmp255:
	.loc	14 0 27
	movdqa	208(%rsp), %xmm7
	movdqa	224(%rsp), %xmm6
	movdqa	64(%rsp), %xmm5
	movdqa	80(%rsp), %xmm4
	movq	40(%rsp), %rcx
	movdqa	48(%rsp), %xmm3
	movdqa	16(%rsp), %xmm2
	movq	(%rsp), %r8
	.loc	14 1849 17
	orb	%al, %r8b
	andb	$1, %r8b
.Ltmp256:
	.loc	14 0 17
	jmp	.LBB10_44
.Ltmp257:
.LBB10_49:
	.loc	14 1849 64
	leaq	32(%rbp), %rsi
	.loc	14 1849 27
	movzbl	%r8b, %r8d
	movq	%r8, (%rsp)
	movl	%r8d, %ecx
	andl	$1, %ecx
	leaq	104(%rsp), %rdi
	movdqa	%xmm4, 80(%rsp)
	movdqa	%xmm5, 64(%rsp)
	callq	_ZN4core3str7pattern13simd_contains28_$u7b$$u7b$closure$u7d$$u7d$17hda28f5e83485fd72E
.Ltmp258:
	.loc	14 0 27
	movdqa	64(%rsp), %xmm5
	movdqa	80(%rsp), %xmm4
	movq	40(%rsp), %rcx
	movdqa	48(%rsp), %xmm3
	movdqa	16(%rsp), %xmm2
	movq	(%rsp), %r8
	.loc	14 1849 17
	orb	%al, %r8b
	andb	$1, %r8b
.Ltmp259:
	.loc	14 0 17
	jmp	.LBB10_45
.Ltmp260:
.LBB10_50:
	.loc	14 1849 64
	leaq	48(%rbp), %rsi
	.loc	14 1849 27
	movzbl	%r8b, %r8d
	movq	%r8, (%rsp)
	movl	%r8d, %ecx
	andl	$1, %ecx
	leaq	104(%rsp), %rdi
	callq	_ZN4core3str7pattern13simd_contains28_$u7b$$u7b$closure$u7d$$u7d$17hda28f5e83485fd72E
.Ltmp261:
	.loc	14 0 27
	movq	40(%rsp), %rcx
	movdqa	48(%rsp), %xmm3
	movdqa	16(%rsp), %xmm2
	movq	(%rsp), %r8
	.loc	14 1849 17
	orb	%al, %r8b
	andb	$1, %r8b
.Ltmp262:
	.loc	14 0 17
	jmp	.LBB10_46
.Ltmp263:
.LBB10_51:
	xorl	%r8d, %r8d
	xorl	%ebp, %ebp
.Ltmp264:
.LBB10_52:
	.loc	14 1854 11 is_stmt 1
	leaq	(%r12,%rbp), %rax
	addq	$15, %rax
	cmpq	%r14, %rax
	jae	.LBB10_58
.Ltmp265:
	.loc	14 0 11 is_stmt 0
	addq	$15, %r12
.Ltmp266:
	.loc	14 1854 66
	leaq	(%r15,%r13), %rbx
.Ltmp267:
	.p2align	4, 0x90
.LBB10_54:
	testb	$1, %r8b
	jne	.LBB10_58
.Ltmp268:
	.loc	15 1270 18 is_stmt 1
	movdqu	(%r15,%rbp), %xmm0
.Ltmp269:
	.loc	15 1270 18 is_stmt 0
	movdqu	(%rbx,%rbp), %xmm1
.Ltmp270:
	.loc	35 33 51 is_stmt 1
	pcmpeqb	%xmm2, %xmm0
.Ltmp271:
	.file	36 "/rustc/90b35a6239c3d8bdabc530a6a0816f7ff89a0aaf/library/core/src/../../portable-simd/crates/core_simd/src/masks" "full_masks.rs"
	.loc	36 207 35
	pcmpeqb	%xmm3, %xmm1
.Ltmp272:
	pand	%xmm0, %xmm1
	pmovmskb	%xmm1, %edx
.Ltmp273:
	.loc	14 1856 12
	testl	%edx, %edx
	jne	.LBB10_57
.Ltmp274:
	.loc	14 1854 11
	leaq	(%r12,%rbp), %rax
	addq	$16, %rax
.Ltmp275:
	.loc	14 1859 9
	addq	$16, %rbp
.Ltmp276:
	.loc	14 1854 11
	cmpq	%r14, %rax
	jb	.LBB10_54
	jmp	.LBB10_58
.Ltmp277:
.LBB10_57:
	.loc	14 1857 23
	leaq	104(%rsp), %rdi
	movq	%rbp, %rsi
	xorl	%ecx, %ecx
	callq	_ZN4core3str7pattern13simd_contains28_$u7b$$u7b$closure$u7d$$u7d$17hda28f5e83485fd72E
.Ltmp278:
	.loc	14 0 23 is_stmt 0
	movdqa	48(%rsp), %xmm3
	movdqa	16(%rsp), %xmm2
	.loc	14 1857 23
	movl	%eax, %r8d
.Ltmp279:
	.loc	14 1854 11 is_stmt 1
	leaq	(%r12,%rbp), %rax
.Ltmp280:
	addq	$16, %rax
.Ltmp281:
	.loc	14 1859 9
	addq	$16, %rbp
.Ltmp282:
	.loc	14 1854 11
	cmpq	%r14, %rax
	jb	.LBB10_54
.Ltmp283:
.LBB10_58:
	.loc	14 1866 13
	subq	248(%rsp), %r14
.Ltmp284:
	.loc	15 921 18
	leaq	(%r15,%r14), %rax
	addq	$-16, %rax
.Ltmp285:
	.loc	15 1270 18
	movdqu	-16(%r15,%r14), %xmm0
.Ltmp286:
	.loc	15 1270 18 is_stmt 0
	movdqu	(%r13,%rax), %xmm1
.Ltmp287:
	.loc	35 33 51 is_stmt 1
	pcmpeqb	%xmm2, %xmm0
.Ltmp288:
	.loc	36 207 35
	pcmpeqb	%xmm3, %xmm1
.Ltmp289:
	pand	%xmm0, %xmm1
	pmovmskb	%xmm1, %edx
.Ltmp290:
	.loc	14 1868 8
	testl	%edx, %edx
	je	.LBB10_101
.Ltmp291:
	.loc	14 0 0 is_stmt 0
	addq	$-16, %r14
.Ltmp292:
	.loc	14 1869 19 is_stmt 1
	movzbl	%r8b, %r8d
	movl	%r8d, %ecx
	andl	$1, %ecx
	leaq	104(%rsp), %rdi
	movq	%r14, %rsi
	movq	%r8, %rbx
	callq	_ZN4core3str7pattern13simd_contains28_$u7b$$u7b$closure$u7d$$u7d$17hda28f5e83485fd72E
.Ltmp293:
	.loc	14 0 19 is_stmt 0
	movq	%rbx, %r8
	.loc	14 1869 9
	orb	%al, %r8b
	andb	$1, %r8b
.Ltmp294:
	.loc	14 0 9
	jmp	.LBB10_101
.Ltmp295:
.LBB10_79:
	movq	144(%rsp), %r14
.Ltmp296:
	.loc	14 1443 48 is_stmt 1
	leaq	(%r14,%r9), %rcx
.Ltmp297:
	.loc	17 255 12
	cmpq	%rsi, %rcx
	jae	.LBB10_16
.Ltmp298:
	.loc	17 0 12 is_stmt 0
	movq	136(%rsp), %rbx
	movq	112(%rsp), %r11
	movq	128(%rsp), %rdi
	movq	%rdi, (%rsp)
	.loc	17 255 12
	leaq	-1(%r11), %r15
.Ltmp299:
	leaq	(%rdx,%r11), %r12
.Ltmp300:
	leaq	(%r10,%r11), %rdi
	decq	%rdi
	movq	%rdi, 16(%rsp)
	addq	%r11, %r10
.Ltmp301:
	.loc	17 0 12
	movl	$1, %edi
	.loc	17 255 12
	subq	%r11, %rdi
	movq	%rdi, 48(%rsp)
	jmp	.LBB10_84
.Ltmp302:
.LBB10_16:
	.loc	17 0 12
	xorl	%r8d, %r8d
.Ltmp303:
.LBB10_101:
	.loc	14 989 6 is_stmt 1
	andb	$1, %r8b
	movl	%r8d, %eax
	.loc	14 989 6 epilogue_begin is_stmt 0
	addq	$280, %rsp
	.cfi_def_cfa_offset 56
	popq	%rbx
	.cfi_def_cfa_offset 48
	popq	%r12
	.cfi_def_cfa_offset 40
	popq	%r13
	.cfi_def_cfa_offset 32
	popq	%r14
	.cfi_def_cfa_offset 24
	popq	%r15
	.cfi_def_cfa_offset 16
	popq	%rbp
	.cfi_def_cfa_offset 8
	retq
.LBB10_81:
	.cfi_def_cfa_offset 336
.Ltmp304:
	.loc	14 1457 17 is_stmt 1
	addq	%rax, %r14
.Ltmp305:
.LBB10_82:
	.loc	14 0 17 is_stmt 0
	movq	%r14, %rdi
.Ltmp306:
.LBB10_83:
	.loc	14 1443 48 is_stmt 1
	leaq	(%rdi,%r9), %rcx
.Ltmp307:
	.loc	14 0 48 is_stmt 0
	xorl	%r8d, %r8d
	movq	%rdi, %r14
.Ltmp308:
	.loc	17 255 12 is_stmt 1
	cmpq	%rsi, %rcx
	jae	.LBB10_101
.Ltmp309:
.LBB10_84:
	.loc	14 1456 17
	movzbl	(%rdx,%rcx), %ecx
	btq	%rcx, %rbx
	jae	.LBB10_81
.Ltmp310:
	.loc	14 0 17 is_stmt 0
	xorl	%ecx, %ecx
	movq	%r10, %r8
	movq	%r14, %r13
.Ltmp311:
	.p2align	4, 0x90
.LBB10_86:
	.loc	21 1720 52 is_stmt 1
	leaq	(%r11,%rcx), %rdi
	cmpq	%rax, %rdi
.Ltmp312:
	.loc	23 752 12
	jae	.LBB10_89
.Ltmp313:
	.loc	14 1468 33
	leaq	(%r11,%r13), %rdi
	cmpq	%rsi, %rdi
	jae	.LBB10_105
.Ltmp314:
	.loc	14 1468 20 is_stmt 0
	movzbl	(%r8), %ebp
	leaq	1(%r13), %rdi
	incq	%r8
	incq	%rcx
	cmpb	(%r12,%r13), %bpl
	movq	%rdi, %r13
.Ltmp315:
	je	.LBB10_86
	jmp	.LBB10_83
.Ltmp316:
.LBB10_89:
	.loc	23 797 12 is_stmt 1
	leaq	(%r15,%r14), %r8
	movq	48(%rsp), %rcx
	movq	16(%rsp), %r13
.Ltmp317:
	.p2align	4, 0x90
.LBB10_90:
	.loc	21 1720 52
	cmpq	$1, %rcx
.Ltmp318:
	.loc	23 797 12
	je	.LBB10_100
.Ltmp319:
	.loc	23 0 12 is_stmt 0
	cmpq	%rax, %r15
.Ltmp320:
	.loc	14 1480 20 is_stmt 1
	jae	.LBB10_107
.Ltmp321:
	.loc	14 1480 33 is_stmt 0
	cmpq	%rsi, %r8
	jae	.LBB10_104
.Ltmp322:
	.loc	14 1480 20
	movzbl	(%r13), %edi
	decq	%r13
.Ltmp323:
	incq	%rcx
	leaq	-1(%r8), %rbp
	cmpb	(%rdx,%r8), %dil
	movq	%rbp, %r8
	je	.LBB10_90
.Ltmp324:
	.loc	14 1481 21 is_stmt 1
	addq	(%rsp), %r14
	jmp	.LBB10_82
.Ltmp325:
.LBB10_97:
	.loc	14 1101 26
	andb	$1, %r8b
.Ltmp326:
	.loc	14 0 26 is_stmt 0
	jmp	.LBB10_101
.Ltmp327:
.LBB10_102:
	.loc	14 1774 73 is_stmt 1
	leaq	.L__unnamed_5(%rip), %rdx
	movq	%r13, %rdi
	movq	%r12, %rsi
.Ltmp328:
	callq	*_ZN4core9panicking18panic_bounds_check17h8307ccead484a122E@GOTPCREL(%rip)
.Ltmp329:
.LBB10_103:
	.loc	14 1467 13
	addq	%rcx, %rdi
	cmpq	%rdi, %rsi
	cmovaq	%rsi, %rdi
.Ltmp330:
	.loc	14 1468 33
	leaq	.L__unnamed_6(%rip), %rdx
.Ltmp331:
	callq	*_ZN4core9panicking18panic_bounds_check17h8307ccead484a122E@GOTPCREL(%rip)
.Ltmp332:
.LBB10_104:
	.loc	14 1480 33
	leaq	.L__unnamed_7(%rip), %rdx
	movq	%r8, %rdi
	callq	*_ZN4core9panicking18panic_bounds_check17h8307ccead484a122E@GOTPCREL(%rip)
.Ltmp333:
.LBB10_105:
	.loc	14 1467 13
	addq	%r11, %r14
	cmpq	%r14, %rsi
	cmovaq	%rsi, %r14
.Ltmp334:
	.loc	14 1468 33
	leaq	.L__unnamed_6(%rip), %rdx
.Ltmp335:
	movq	%r14, %rdi
	callq	*_ZN4core9panicking18panic_bounds_check17h8307ccead484a122E@GOTPCREL(%rip)
.Ltmp336:
.LBB10_106:
	.loc	29 537 21
	leaq	.L__unnamed_8(%rip), %r8
.Ltmp337:
	movq	%rcx, %rsi
	callq	*_ZN4core3str16slice_error_fail17h77e439b321632760E@GOTPCREL(%rip)
.Ltmp338:
.LBB10_107:
	.loc	14 1480 20
	negq	%rcx
.Ltmp339:
.LBB10_108:
	.loc	14 1480 20 is_stmt 0
	leaq	.L__unnamed_9(%rip), %rdx
	movq	%rcx, %rdi
	movq	%rax, %rsi
	callq	*_ZN4core9panicking18panic_bounds_check17h8307ccead484a122E@GOTPCREL(%rip)
.Ltmp340:
.Lfunc_end10:
	.size	_ZN55_$LT$$RF$str$u20$as$u20$core..str..pattern..Pattern$GT$15is_contained_in17hf8206fecb7d2b9a9E, .Lfunc_end10-_ZN55_$LT$$RF$str$u20$as$u20$core..str..pattern..Pattern$GT$15is_contained_in17hf8206fecb7d2b9a9E
	.cfi_endproc
	.file	37 "/rustc/90b35a6239c3d8bdabc530a6a0816f7ff89a0aaf/library/core/src/iter/adapters" "rev.rs"
	.file	38 "/rustc/90b35a6239c3d8bdabc530a6a0816f7ff89a0aaf/library/core/src/str" "iter.rs"
	.file	39 "/rustc/90b35a6239c3d8bdabc530a6a0816f7ff89a0aaf/library/core/src/../../portable-simd/crates/core_simd/src" "vector.rs"
	.file	40 "/rustc/90b35a6239c3d8bdabc530a6a0816f7ff89a0aaf/library/core/src/../../portable-simd/crates/core_simd/src" "masks.rs"

	.section	.text._ZN5alloc7raw_vec11finish_grow17h442fe583d28a47f7E,"ax",@progbits
	.p2align	4, 0x90
	.type	_ZN5alloc7raw_vec11finish_grow17h442fe583d28a47f7E,@function
_ZN5alloc7raw_vec11finish_grow17h442fe583d28a47f7E:
.Lfunc_begin11:
	.file	41 "/rustc/90b35a6239c3d8bdabc530a6a0816f7ff89a0aaf/library/alloc/src" "raw_vec.rs"
	.loc	41 745 0 is_stmt 1
	.cfi_startproc
	pushq	%r15
	.cfi_def_cfa_offset 16
	pushq	%r14
	.cfi_def_cfa_offset 24
	pushq	%rbx
	.cfi_def_cfa_offset 32
	.cfi_offset %rbx, -32
	.cfi_offset %r14, -24
	.cfi_offset %r15, -16
	movq	%rdx, %rbx
	movq	%rsi, %r15
	movq	%rdi, %r14
.Ltmp341:
	.loc	41 755 51 prologue_end
	cmpq	$0, 8(%rcx)
	.loc	41 755 25 is_stmt 0
	je	.LBB11_3
.Ltmp342:
	.loc	41 755 36
	movq	16(%rcx), %rsi
.Ltmp343:
	.loc	8 214 9 is_stmt 1
	testq	%rsi, %rsi
.Ltmp344:
	je	.LBB11_3
.Ltmp345:
	.loc	41 0 0 is_stmt 0
	movq	(%rcx), %rdi
.Ltmp346:
	.loc	8 139 14 is_stmt 1
	movq	%r15, %rdx
	movq	%rbx, %rcx
.Ltmp347:
	callq	*__rust_realloc@GOTPCREL(%rip)
.Ltmp348:
	.file	42 "/rustc/90b35a6239c3d8bdabc530a6a0816f7ff89a0aaf/library/core/src" "result.rs"
	.loc	42 1997 9
	jmp	.LBB11_7
.Ltmp349:
.LBB11_3:
	.loc	41 0 0 is_stmt 0
	testq	%rbx, %rbx
	je	.LBB11_4
.Ltmp350:
	movq	__rust_no_alloc_shim_is_unstable@GOTPCREL(%rip), %rax
	movzbl	(%rax), %eax
	movq	%rbx, %rdi
	movq	%r15, %rsi
	callq	*__rust_alloc@GOTPCREL(%rip)
.Ltmp351:
	jmp	.LBB11_7
.Ltmp352:
.LBB11_4:
	movq	%r15, %rax
.Ltmp353:
.LBB11_7:
	.loc	42 854 15 is_stmt 1
	xorl	%ecx, %ecx
	testq	%rax, %rax
	.loc	42 854 9 is_stmt 0
	cmovneq	%rax, %r15
.Ltmp354:
	.loc	42 854 15
	sete	%cl
	.loc	42 0 0
	movq	%r15, 8(%r14)
	movq	%rbx, 16(%r14)
	movq	%rcx, (%r14)
.Ltmp355:
	.loc	41 767 2 epilogue_begin is_stmt 1
	popq	%rbx
.Ltmp356:
	.cfi_def_cfa_offset 24
	popq	%r14
	.cfi_def_cfa_offset 16
	popq	%r15
	.cfi_def_cfa_offset 8
	retq
.Ltmp357:
.Lfunc_end11:
	.size	_ZN5alloc7raw_vec11finish_grow17h442fe583d28a47f7E, .Lfunc_end11-_ZN5alloc7raw_vec11finish_grow17h442fe583d28a47f7E
	.cfi_endproc

	.section	".text.unlikely._ZN5alloc7raw_vec20RawVecInner$LT$A$GT$7reserve21do_reserve_and_handle17hcc43aedcb84c625fE","ax",@progbits
	.p2align	4, 0x90
	.type	_ZN5alloc7raw_vec20RawVecInner$LT$A$GT$7reserve21do_reserve_and_handle17hcc43aedcb84c625fE,@function
_ZN5alloc7raw_vec20RawVecInner$LT$A$GT$7reserve21do_reserve_and_handle17hcc43aedcb84c625fE:
.Lfunc_begin12:
	.loc	41 535 0
	.cfi_startproc
	pushq	%r14
	.cfi_def_cfa_offset 16
	pushq	%rbx
	.cfi_def_cfa_offset 24
	subq	$56, %rsp
	.cfi_def_cfa_offset 80
	.cfi_offset %rbx, -24
	.cfi_offset %r14, -16
	movq	%rsi, %rbx
.Ltmp358:
	.loc	16 494 26 prologue_end
	addq	%rdx, %rbx
.Ltmp359:
	.loc	28 22 9
	jb	.LBB12_1
.Ltmp360:
	.loc	28 0 9 is_stmt 0
	movq	%rdi, %r14
.Ltmp361:
	.loc	41 640 28 is_stmt 1
	movq	(%rdi), %r9
	leaq	(%r9,%r9), %rax
.Ltmp362:
	.loc	21 0 0 is_stmt 0
	cmpq	%rbx, %rax
	cmovaq	%rax, %rbx
.Ltmp363:
	.loc	41 162 8 is_stmt 1
	xorl	%eax, %eax
.Ltmp364:
	cmpq	$1, %r8
	sete	%al
	leaq	4(,%rax,4), %rax
.Ltmp365:
	.loc	21 0 0 is_stmt 0
	cmpq	%rbx, %rax
	cmovaq	%rax, %rbx
.Ltmp366:
	.loc	13 325 35 is_stmt 1
	leaq	(%rcx,%r8), %rdx
.Ltmp367:
	decq	%rdx
	.loc	13 325 72 is_stmt 0
	movq	%rcx, %rax
.Ltmp368:
	negq	%rax
	.loc	13 325 35
	andq	%rdx, %rax
.Ltmp369:
	.loc	13 0 35
	xorl	%edi, %edi
.Ltmp370:
	.loc	16 2451 26 is_stmt 1
	mulq	%rbx
.Ltmp371:
	.loc	13 383 16
	jo	.LBB12_3
.Ltmp372:
	.loc	13 0 16 is_stmt 0
	movabsq	$-9223372036854775808, %rdx
	.loc	13 383 0
	subq	%rcx, %rdx
	.loc	13 383 16
	cmpq	%rdx, %rax
	ja	.LBB12_10
.Ltmp373:
	.loc	13 0 16
	testq	%r9, %r9
.Ltmp374:
	.loc	41 512 12 is_stmt 1
	je	.LBB12_6
.Ltmp375:
	.loc	41 645 43
	movq	8(%r14), %rdx
.Ltmp376:
	.loc	16 922 17
	imulq	%r8, %r9
.Ltmp377:
	.loc	41 522 17
	movq	%rdx, 32(%rsp)
	movq	%r9, 48(%rsp)
	movq	%rcx, %rdx
	jmp	.LBB12_8
.Ltmp378:
.LBB12_6:
	.loc	41 0 17 is_stmt 0
	xorl	%edx, %edx
.Ltmp379:
.LBB12_8:
	movq	%rdx, 40(%rsp)
	leaq	8(%rsp), %rdi
	leaq	32(%rsp), %r8
.Ltmp380:
	.loc	41 645 19 is_stmt 1
	movq	%rcx, %rsi
.Ltmp381:
	movq	%rax, %rdx
	movq	%r8, %rcx
.Ltmp382:
	callq	_ZN5alloc7raw_vec11finish_grow17h442fe583d28a47f7E
.Ltmp383:
	.loc	42 1997 9
	cmpl	$1, 8(%rsp)
	je	.LBB12_9
.Ltmp384:
	.loc	42 1998 16
	movq	16(%rsp), %rax
.Ltmp385:
	.loc	41 616 9
	movq	%rax, 8(%r14)
	.loc	41 617 9
	movq	%rbx, (%r14)
.Ltmp386:
	.loc	41 544 10 epilogue_begin
	addq	$56, %rsp
	.cfi_def_cfa_offset 24
	popq	%rbx
.Ltmp387:
	.cfi_def_cfa_offset 16
	popq	%r14
.Ltmp388:
	.cfi_def_cfa_offset 8
	retq
.Ltmp389:
.LBB12_1:
	.cfi_def_cfa_offset 80
	.loc	41 0 10 is_stmt 0
	xorl	%edi, %edi
.Ltmp390:
	.loc	41 542 17 is_stmt 1
	callq	*_ZN5alloc7raw_vec12handle_error17h082aba6c36a25221E@GOTPCREL(%rip)
.Ltmp391:
.LBB12_9:
	.loc	42 1999 17
	movq	16(%rsp), %rdi
	movq	24(%rsp), %rsi
.Ltmp392:
.LBB12_10:
	.loc	41 542 17
	callq	*_ZN5alloc7raw_vec12handle_error17h082aba6c36a25221E@GOTPCREL(%rip)
.Ltmp393:
.LBB12_3:
	callq	*_ZN5alloc7raw_vec12handle_error17h082aba6c36a25221E@GOTPCREL(%rip)
.Ltmp394:
.Lfunc_end12:
	.size	_ZN5alloc7raw_vec20RawVecInner$LT$A$GT$7reserve21do_reserve_and_handle17hcc43aedcb84c625fE, .Lfunc_end12-_ZN5alloc7raw_vec20RawVecInner$LT$A$GT$7reserve21do_reserve_and_handle17hcc43aedcb84c625fE
	.cfi_endproc

	.section	".text._ZN60_$LT$alloc..string..String$u20$as$u20$core..fmt..Display$GT$3fmt17h6e7c1492a3cc2a04E","ax",@progbits
	.p2align	4, 0x90
	.type	_ZN60_$LT$alloc..string..String$u20$as$u20$core..fmt..Display$GT$3fmt17h6e7c1492a3cc2a04E,@function
_ZN60_$LT$alloc..string..String$u20$as$u20$core..fmt..Display$GT$3fmt17h6e7c1492a3cc2a04E:
.Lfunc_begin13:
	.file	43 "/rustc/90b35a6239c3d8bdabc530a6a0816f7ff89a0aaf/library/alloc/src" "string.rs"
	.loc	43 2492 0
	.cfi_startproc
	movq	%rsi, %rdx
.Ltmp395:
	.loc	41 497 9 prologue_end
	movq	8(%rdi), %rax
.Ltmp396:
	.file	44 "/rustc/90b35a6239c3d8bdabc530a6a0816f7ff89a0aaf/library/alloc/src/vec" "mod.rs"
	.loc	44 1567 55
	movq	16(%rdi), %rsi
.Ltmp397:
	.loc	43 2493 9
	movq	%rax, %rdi
.Ltmp398:
	jmpq	*_ZN42_$LT$str$u20$as$u20$core..fmt..Display$GT$3fmt17h7dd41532bea3c59dE@GOTPCREL(%rip)
.Ltmp399:
.Lfunc_end13:
	.size	_ZN60_$LT$alloc..string..String$u20$as$u20$core..fmt..Display$GT$3fmt17h6e7c1492a3cc2a04E, .Lfunc_end13-_ZN60_$LT$alloc..string..String$u20$as$u20$core..fmt..Display$GT$3fmt17h6e7c1492a3cc2a04E
	.cfi_endproc

	.section	".text._ZN70_$LT$core..num..error..TryFromIntError$u20$as$u20$core..fmt..Debug$GT$3fmt17h07776776eb9173e9E","ax",@progbits
	.p2align	4, 0x90
	.type	_ZN70_$LT$core..num..error..TryFromIntError$u20$as$u20$core..fmt..Debug$GT$3fmt17h07776776eb9173e9E,@function
_ZN70_$LT$core..num..error..TryFromIntError$u20$as$u20$core..fmt..Debug$GT$3fmt17h07776776eb9173e9E:
.Lfunc_begin14:
	.file	45 "/rustc/90b35a6239c3d8bdabc530a6a0816f7ff89a0aaf/library/core/src/num" "error.rs"
	.loc	45 9 0
	.cfi_startproc
	pushq	%rax
	.cfi_def_cfa_offset 16
	movq	%rsi, %rax
.Ltmp400:
	.loc	45 10 28 prologue_end
	movq	%rdi, (%rsp)
	.loc	45 9 10
	leaq	.L__unnamed_10(%rip), %rsi
.Ltmp401:
	leaq	.L__unnamed_3(%rip), %r8
	movq	%rsp, %rcx
	movl	$15, %edx
	movq	%rax, %rdi
.Ltmp402:
	callq	*_ZN4core3fmt9Formatter25debug_tuple_field1_finish17h4aa6395a902decd5E@GOTPCREL(%rip)
.Ltmp403:
	.loc	45 9 15 epilogue_begin is_stmt 0
	popq	%rcx
	.cfi_def_cfa_offset 8
	retq
.Ltmp404:
.Lfunc_end14:
	.size	_ZN70_$LT$core..num..error..TryFromIntError$u20$as$u20$core..fmt..Debug$GT$3fmt17h07776776eb9173e9E, .Lfunc_end14-_ZN70_$LT$core..num..error..TryFromIntError$u20$as$u20$core..fmt..Debug$GT$3fmt17h07776776eb9173e9E
	.cfi_endproc

	.section	".text._ZN82_$LT$std..io..Lines$LT$B$GT$$u20$as$u20$core..iter..traits..iterator..Iterator$GT$4next17h4f94d81ea23e02a0E","ax",@progbits
	.p2align	4, 0x90
	.type	_ZN82_$LT$std..io..Lines$LT$B$GT$$u20$as$u20$core..iter..traits..iterator..Iterator$GT$4next17h4f94d81ea23e02a0E,@function
_ZN82_$LT$std..io..Lines$LT$B$GT$$u20$as$u20$core..iter..traits..iterator..Iterator$GT$4next17h4f94d81ea23e02a0E:
.Lfunc_begin15:
	.file	46 "/rustc/90b35a6239c3d8bdabc530a6a0816f7ff89a0aaf/library/std/src/io" "mod.rs"
	.loc	46 3183 0 is_stmt 1
	.cfi_startproc
	.cfi_personality 155, DW.ref.rust_eh_personality
	.cfi_lsda 27, .Lexception1
	pushq	%rbp
	.cfi_def_cfa_offset 16
	pushq	%r15
	.cfi_def_cfa_offset 24
	pushq	%r14
	.cfi_def_cfa_offset 32
	pushq	%r13
	.cfi_def_cfa_offset 40
	pushq	%r12
	.cfi_def_cfa_offset 48
	pushq	%rbx
	.cfi_def_cfa_offset 56
	subq	$88, %rsp
	.cfi_def_cfa_offset 144
	.cfi_offset %rbx, -56
	.cfi_offset %r12, -48
	.cfi_offset %r13, -40
	.cfi_offset %r14, -32
	.cfi_offset %r15, -24
	.cfi_offset %rbp, -16
	movq	%rsi, %r13
	movq	%rdi, 32(%rsp)
.Ltmp428:
	.loc	43 447 9 prologue_end
	movq	$0, (%rsp)
	movq	$1, 8(%rsp)
	movq	$0, 16(%rsp)
.Ltmp429:
	.loc	43 0 9 is_stmt 0
	leaq	40(%rsi), %rax
	movq	%rax, 48(%rsp)
	movl	$1, %eax
	movq	%rax, 24(%rsp)
	xorl	%r14d, %r14d
	movq	memcpy@GOTPCREL(%rip), %r12
	xorl	%ebx, %ebx
.Ltmp430:
.LBB15_1:
	.file	47 "/rustc/90b35a6239c3d8bdabc530a6a0816f7ff89a0aaf/library/std/src/io/buffered/bufreader" "buffer.rs"
	.loc	47 137 12 is_stmt 1
	movq	16(%r13), %rax
	.loc	47 137 24 is_stmt 0
	movq	24(%r13), %r15
	jmp	.LBB15_2
.Ltmp431:
	.p2align	4, 0x90
.LBB15_15:
	.loc	47 0 24
	movq	24(%rsp), %rax
.Ltmp432:
.LBB15_21:
	movq	%rax, 24(%rsp)
.Ltmp433:
	.loc	11 1005 18 is_stmt 1
	leaq	(%rax,%r14), %rdi
.Ltmp434:
	.file	48 "/rustc/90b35a6239c3d8bdabc530a6a0816f7ff89a0aaf/library/core/src" "intrinsics.rs"
	.loc	48 3375 14
	movq	%rbp, %rsi
	movq	%r15, %rdx
	callq	*%r12
.Ltmp435:
	.loc	44 2556 9
	addq	%r15, %r14
.Ltmp436:
	movq	%r14, 16(%rsp)
.Ltmp437:
	.loc	44 0 9 is_stmt 0
	movq	16(%r13), %rax
.Ltmp438:
	.loc	47 85 29 is_stmt 1
	addq	%r15, %rax
.Ltmp439:
	.loc	47 85 45 is_stmt 0
	movq	24(%r13), %rcx
.Ltmp440:
	.loc	21 0 0
	cmpq	%rcx, %rax
	cmovaeq	%rcx, %rax
.Ltmp441:
	.loc	47 85 9
	movq	%rax, 16(%r13)
.Ltmp442:
	.loc	46 2121 9 is_stmt 1
	addq	%r15, %rbx
.Ltmp443:
	.loc	46 2122 20
	testq	%r15, %r15
	movq	%rcx, %r15
.Ltmp444:
	je	.LBB15_32
.Ltmp445:
.LBB15_2:
	.loc	47 53 53
	movq	(%r13), %rbp
.Ltmp446:
	.loc	47 137 12
	cmpq	%r15, %rax
	jb	.LBB15_6
.Ltmp447:
	.loc	47 140 45
	movq	8(%r13), %rax
.Ltmp448:
	.file	49 "/rustc/90b35a6239c3d8bdabc530a6a0816f7ff89a0aaf/library/core/src/io" "borrowed_buf.rs"
	.loc	49 68 9
	movq	%rbp, 56(%rsp)
	movq	%rax, 64(%rsp)
.Ltmp449:
	movq	$0, 72(%rsp)
.Ltmp450:
	.loc	47 143 30
	movq	32(%r13), %rax
.Ltmp451:
	.loc	49 143 9 is_stmt 0
	movq	%rax, 80(%rsp)
.Ltmp452:
.Ltmp405:
	.loc	49 0 9
	movq	48(%rsp), %rdi
.Ltmp453:
	.file	50 "/rustc/90b35a6239c3d8bdabc530a6a0816f7ff89a0aaf/library/std/src/io" "impls.rs"
	.loc	50 21 9 is_stmt 1
	leaq	56(%rsp), %rsi
	xorl	%edx, %edx
	callq	*_ZN47_$LT$std..fs..File$u20$as$u20$std..io..Read$GT$8read_buf17hebf6fa8cb90b122fE@GOTPCREL(%rip)
.Ltmp454:
.Ltmp406:
	.loc	47 0 0 is_stmt 0
	movq	%rax, %r15
.Ltmp455:
	.loc	47 148 13 is_stmt 1
	movq	$0, 16(%r13)
.Ltmp456:
	.loc	49 82 9
	movdqu	72(%rsp), %xmm0
.Ltmp457:
	.loc	47 149 13
	movdqu	%xmm0, 24(%r13)
.Ltmp458:
	.loc	42 1997 15
	testq	%rax, %rax
	.loc	42 1997 9 is_stmt 0
	jne	.LBB15_66
.Ltmp459:
	.loc	47 137 9 is_stmt 1
	movq	%xmm0, %r15
	xorl	%eax, %eax
.Ltmp460:
.LBB15_6:
	.loc	17 435 27
	subq	%rax, %r15
.Ltmp461:
	.loc	46 2104 35
	testq	%rbp, %rbp
	.loc	46 2104 29 is_stmt 0
	je	.LBB15_16
.Ltmp462:
	.loc	46 0 0
	addq	%rax, %rbp
.Ltmp463:
	.file	51 "/rustc/90b35a6239c3d8bdabc530a6a0816f7ff89a0aaf/library/core/src/slice" "memchr.rs"
	.loc	51 29 8 is_stmt 1
	cmpq	$15, %r15
	ja	.LBB15_12
.Ltmp464:
	.loc	51 42 11
	testq	%r15, %r15
	je	.LBB15_14
.Ltmp465:
	.loc	51 0 11 is_stmt 0
	xorl	%edx, %edx
.Ltmp466:
	.p2align	4, 0x90
.LBB15_10:
	.loc	51 43 12 is_stmt 1
	cmpb	$10, (%rbp,%rdx)
	je	.LBB15_22
.Ltmp467:
	.loc	51 47 9
	incq	%rdx
.Ltmp468:
	.loc	51 42 11
	cmpq	%rdx, %r15
	jne	.LBB15_10
	jmp	.LBB15_14
.Ltmp469:
	.p2align	4, 0x90
.LBB15_12:
.Ltmp407:
	.loc	51 33 5
	movl	$10, %edi
	movq	%rbp, %rsi
	movq	%r15, %rdx
	callq	*_ZN4core5slice6memchr14memchr_aligned17hf6aa57362cec11a2E@GOTPCREL(%rip)
.Ltmp470:
.Ltmp408:
	.loc	46 2109 13
	testq	%rax, %rax
	jne	.LBB15_22
.Ltmp471:
.LBB15_14:
	.loc	41 502 49
	movq	(%rsp), %rax
.Ltmp472:
	.loc	16 1942 13
	subq	%r14, %rax
.Ltmp473:
	.loc	41 608 9
	cmpq	%r15, %rax
.Ltmp474:
	.loc	41 546 12
	jae	.LBB15_15
.Ltmp475:
.Ltmp416:
	.loc	41 547 13
	movl	$1, %ecx
	movl	$1, %r8d
	movq	%rsp, %rdi
	movq	%r14, %rsi
	movq	%r15, %rdx
	callq	_ZN5alloc7raw_vec20RawVecInner$LT$A$GT$7reserve21do_reserve_and_handle17hcc43aedcb84c625fE
.Ltmp476:
.Ltmp417:
	.loc	41 497 9
	movq	8(%rsp), %rax
.Ltmp477:
	.loc	44 2665 9
	movq	16(%rsp), %r14
	jmp	.LBB15_21
.Ltmp478:
.LBB15_16:
	.loc	10 257 11
	movl	%r15d, %eax
	andl	$3, %eax
	leaq	.LJTI15_0(%rip), %rcx
	.loc	10 257 5 is_stmt 0
	movslq	(%rcx,%rax,4), %rax
	addq	%rcx, %rax
	jmpq	*%rax
.Ltmp479:
.LBB15_66:
	.loc	10 257 11
	movl	%r15d, %eax
	andl	$3, %eax
	leaq	.LJTI15_0(%rip), %rcx
	.loc	10 257 5
	movslq	(%rcx,%rax,4), %rax
	addq	%rcx, %rax
	jmpq	*%rax
.Ltmp480:
.LBB15_37:
	.file	52 "/rustc/90b35a6239c3d8bdabc530a6a0816f7ff89a0aaf/library/std/src/io" "error.rs"
	.loc	52 208 45 is_stmt 1
	cmpb	$35, 16(%r15)
.Ltmp481:
	.loc	46 2106 31
	je	.LBB15_1
	jmp	.LBB15_18
.Ltmp482:
.LBB15_44:
	.file	53 "/rustc/90b35a6239c3d8bdabc530a6a0816f7ff89a0aaf/library/std/src/sys/pal/unix" "mod.rs"
	.loc	53 242 5
	movq	%r15, %rax
	shrq	$32, %rax
	cmpl	$4, %eax
.Ltmp483:
	.loc	46 2106 31
	je	.LBB15_1
	jmp	.LBB15_18
.Ltmp484:
.LBB15_17:
	.loc	10 306 24
	movq	%r15, %rax
	shrq	$32, %rax
	cmpl	$35, %eax
	je	.LBB15_1
	jmp	.LBB15_18
.Ltmp485:
.LBB15_38:
	.loc	52 208 45
	cmpb	$35, 15(%r15)
.Ltmp486:
	.loc	46 2106 31
	jne	.LBB15_18
.Ltmp487:
	.loc	46 0 0 is_stmt 0
	leaq	-1(%r15), %rax
.Ltmp488:
	movq	%rax, 40(%rsp)
.Ltmp489:
	.loc	6 574 1 is_stmt 1
	movq	-1(%r15), %rbp
	movq	7(%r15), %r15
.Ltmp490:
	.loc	6 574 1 is_stmt 0
	movq	(%r15), %rax
	testq	%rax, %rax
	je	.LBB15_41
.Ltmp491:
.Ltmp419:
	movq	%rbp, %rdi
	callq	*%rax
.Ltmp420:
.Ltmp492:
.LBB15_41:
	.loc	12 396 14 is_stmt 1
	movq	8(%r15), %rsi
.Ltmp493:
	.loc	7 1678 16
	testq	%rsi, %rsi
	movq	__rust_dealloc@GOTPCREL(%rip), %rax
	je	.LBB15_43
.Ltmp494:
	.loc	7 0 0 is_stmt 0
	movq	16(%r15), %rdx
.Ltmp495:
	.loc	8 119 14 is_stmt 1
	movq	%rbp, %rdi
	movq	%rax, %r15
.Ltmp496:
	callq	*%rax
.Ltmp497:
	.loc	8 0 14 is_stmt 0
	movq	%r15, %rax
.Ltmp498:
.LBB15_43:
	.loc	8 119 14
	movl	$24, %esi
	movl	$8, %edx
	movq	40(%rsp), %rdi
	callq	*%rax
.Ltmp499:
	.loc	6 574 1 is_stmt 1
	jmp	.LBB15_1
.Ltmp500:
.LBB15_22:
	.loc	17 709 12
	cmpq	$-1, %rdx
	je	.LBB15_26
.Ltmp501:
	.file	54 "/rustc/90b35a6239c3d8bdabc530a6a0816f7ff89a0aaf/library/core/src/ops" "range.rs"
	.loc	54 458 29
	leaq	1(%rdx), %r12
.Ltmp502:
	.loc	17 464 12
	cmpq	%r15, %rdx
	jae	.LBB15_24
.Ltmp503:
	.loc	41 502 49
	movq	(%rsp), %rax
.Ltmp504:
	.loc	16 1942 13
	subq	%r14, %rax
.Ltmp505:
	.loc	41 608 9
	cmpq	%rdx, %rax
.Ltmp506:
	.loc	41 546 12
	jbe	.LBB15_29
.Ltmp507:
	.loc	41 0 12 is_stmt 0
	movq	24(%rsp), %rax
	.loc	41 546 12
	jmp	.LBB15_31
.Ltmp508:
.LBB15_29:
.Ltmp411:
	.loc	41 0 12
	movq	%rsp, %rdi
	.loc	41 547 13 is_stmt 1
	movl	$1, %ecx
	movl	$1, %r8d
	movq	%r14, %rsi
	movq	%r12, %rdx
.Ltmp509:
	callq	_ZN5alloc7raw_vec20RawVecInner$LT$A$GT$7reserve21do_reserve_and_handle17hcc43aedcb84c625fE
.Ltmp510:
.Ltmp412:
	.loc	41 497 9
	movq	8(%rsp), %rax
.Ltmp511:
	.loc	44 2665 9
	movq	16(%rsp), %r14
.Ltmp512:
.LBB15_31:
	.loc	44 0 9 is_stmt 0
	movq	%rax, 24(%rsp)
.Ltmp513:
	.loc	11 1005 18 is_stmt 1
	leaq	(%rax,%r14), %rdi
.Ltmp514:
	.loc	48 3375 14
	movq	%rbp, %rsi
	movq	%r12, %rdx
	callq	*memcpy@GOTPCREL(%rip)
.Ltmp515:
	.loc	44 2556 9
	addq	%r12, %r14
.Ltmp516:
	.loc	44 0 9 is_stmt 0
	movq	16(%r13), %rax
.Ltmp517:
	.loc	47 85 29 is_stmt 1
	addq	%r12, %rax
.Ltmp518:
	.loc	47 85 45 is_stmt 0
	movq	24(%r13), %rcx
.Ltmp519:
	.loc	21 0 0
	cmpq	%rcx, %rax
	cmovaeq	%rcx, %rax
.Ltmp520:
	.loc	47 85 9
	movq	%rax, 16(%r13)
.Ltmp521:
	.loc	46 2121 9 is_stmt 1
	addq	%r12, %rbx
.Ltmp522:
.LBB15_32:
	.loc	46 0 9 is_stmt 0
	xorl	%r13d, %r13d
.Ltmp523:
	xorl	%r12d, %r12d
.Ltmp524:
.LBB15_33:
.Ltmp422:
	leaq	56(%rsp), %rdi
	movq	24(%rsp), %rsi
.Ltmp525:
	.loc	46 386 8 is_stmt 1
	movq	%r14, %rdx
	callq	*_ZN4core3str8converts9from_utf817h53879cc69c794b55E@GOTPCREL(%rip)
.Ltmp423:
.Ltmp526:
	.loc	42 564 18
	movzbl	56(%rsp), %ecx
	.loc	19 475 9
	leaq	.L__unnamed_11(%rip), %rax
	testq	%r12, %r12
	cmovneq	%rbx, %rax
	xorl	%edx, %edx
	testb	%cl, %cl
	cmovneq	%rdx, %r14
.Ltmp527:
	cmoveq	%rbx, %rax
.Ltmp528:
	.loc	44 1883 9
	movq	%r14, 16(%rsp)
.Ltmp529:
	.loc	46 3185 9
	orb	%cl, %r13b
	testb	$1, %r13b
	je	.LBB15_35
.Ltmp530:
	.loc	46 0 9 is_stmt 0
	movabsq	$-9223372036854775807, %rcx
.Ltmp531:
	.loc	46 3196 23 is_stmt 1
	decq	%rcx
	movq	32(%rsp), %rdx
	movq	%rcx, (%rdx)
	movq	%rax, 8(%rdx)
.Ltmp532:
	.loc	46 3198 5
	movq	(%rsp), %rsi
.Ltmp533:
	.loc	46 0 5 is_stmt 0
	testq	%rsi, %rsi
.Ltmp534:
	.loc	41 512 12 is_stmt 1
	jne	.LBB15_58
	jmp	.LBB15_62
.Ltmp535:
.LBB15_35:
	.loc	46 3185 9
	testq	%rax, %rax
	je	.LBB15_36
.Ltmp536:
	.loc	20 2581 9
	testq	%r14, %r14
	je	.LBB15_61
.Ltmp537:
	.loc	46 3188 0
	movq	8(%rsp), %rax
.Ltmp538:
	.loc	22 91 13
	cmpb	$10, -1(%rax,%r14)
.Ltmp539:
	.loc	46 3188 20
	jne	.LBB15_61
.Ltmp540:
	.loc	20 2581 9
	movq	%r14, %rcx
	decq	%rcx
.Ltmp541:
	.loc	44 1883 9
	movq	%rcx, 16(%rsp)
.Ltmp542:
	.loc	20 2581 9
	je	.LBB15_61
.Ltmp543:
	.loc	22 91 13
	cmpb	$13, -1(%rax,%rcx)
.Ltmp544:
	.loc	46 3190 24
	jne	.LBB15_61
.Ltmp545:
	.loc	43 1496 22
	addq	$-2, %r14
.Ltmp546:
	.loc	44 1883 9
	movq	%r14, 16(%rsp)
.Ltmp547:
.LBB15_61:
	.loc	46 3194 25
	movq	16(%rsp), %rax
	movq	32(%rsp), %rcx
	movq	%rax, 16(%rcx)
	movdqu	(%rsp), %xmm0
	movdqu	%xmm0, (%rcx)
	jmp	.LBB15_62
.Ltmp548:
.LBB15_36:
	.loc	46 0 25 is_stmt 0
	movabsq	$-9223372036854775807, %rax
	movq	32(%rsp), %rcx
	.loc	46 3186 22 is_stmt 1
	movq	%rax, (%rcx)
.Ltmp549:
	.loc	46 3198 5
	movq	(%rsp), %rsi
.Ltmp550:
	.loc	46 0 5 is_stmt 0
	testq	%rsi, %rsi
.Ltmp551:
	.loc	41 512 12 is_stmt 1
	je	.LBB15_62
.Ltmp552:
.LBB15_58:
	.loc	46 3198 5
	movq	8(%rsp), %rdi
.Ltmp553:
	.loc	8 119 14
	movl	$1, %edx
	callq	*__rust_dealloc@GOTPCREL(%rip)
.Ltmp554:
.LBB15_62:
	.loc	46 3198 6 epilogue_begin
	addq	$88, %rsp
	.cfi_def_cfa_offset 56
	popq	%rbx
	.cfi_def_cfa_offset 48
	popq	%r12
	.cfi_def_cfa_offset 40
	popq	%r13
	.cfi_def_cfa_offset 32
	popq	%r14
	.cfi_def_cfa_offset 24
	popq	%r15
	.cfi_def_cfa_offset 16
	popq	%rbp
	.cfi_def_cfa_offset 8
	retq
.Ltmp555:
.LBB15_18:
	.cfi_def_cfa_offset 144
	.loc	46 0 6 is_stmt 0
	movl	$1, %r12d
	movb	$1, %r13b
.Ltmp556:
	movq	%r15, %rbx
.Ltmp557:
	.loc	10 306 24 is_stmt 1
	jmp	.LBB15_33
.Ltmp558:
.LBB15_26:
.Ltmp413:
	.loc	17 710 13
	leaq	.L__unnamed_12(%rip), %rdi
	callq	*_ZN4core5slice5index29slice_end_index_overflow_fail17ha8c92d1e3bc6c110E@GOTPCREL(%rip)
.Ltmp559:
.Ltmp414:
	.loc	17 0 13 is_stmt 0
	jmp	.LBB15_25
.Ltmp560:
.LBB15_24:
.Ltmp409:
	.loc	17 465 13 is_stmt 1
	leaq	.L__unnamed_12(%rip), %rdx
.Ltmp561:
	movq	%r12, %rdi
	movq	%r15, %rsi
	callq	*_ZN4core5slice5index24slice_end_index_len_fail17h8536b7c3e486e738E@GOTPCREL(%rip)
.Ltmp562:
.Ltmp410:
.LBB15_25:
	.loc	17 0 0 is_stmt 0
	ud2
.Ltmp563:
.LBB15_45:
.Ltmp421:
	movq	%rax, %r14
.Ltmp564:
	.loc	12 396 14 is_stmt 1
	movq	8(%r15), %rsi
.Ltmp565:
	.loc	7 1678 16
	testq	%rsi, %rsi
	je	.LBB15_47
.Ltmp566:
	.loc	7 0 0 is_stmt 0
	movq	16(%r15), %rdx
.Ltmp567:
	.loc	8 119 14 is_stmt 1
	movq	%rbp, %rdi
	callq	*__rust_dealloc@GOTPCREL(%rip)
.Ltmp568:
.LBB15_47:
	.loc	8 119 14 is_stmt 0
	movl	$24, %esi
	movl	$8, %edx
	movq	40(%rsp), %rdi
	callq	*__rust_dealloc@GOTPCREL(%rip)
	jmp	.LBB15_53
.Ltmp569:
.LBB15_49:
.Ltmp424:
	.loc	8 0 14
	movq	%rax, %r14
.Ltmp425:
	.loc	46 392 1 is_stmt 1
	movq	%r12, %rdi
	movq	%rbx, %rsi
	callq	_ZN4core3ptr78drop_in_place$LT$core..result..Result$LT$usize$C$std..io..error..Error$GT$$GT$17hc6b77c6352508005E
.Ltmp426:
	jmp	.LBB15_53
.Ltmp570:
.LBB15_50:
.Ltmp427:
	.loc	46 377 1
	callq	*_ZN4core9panicking16panic_in_cleanup17hddc1b09eaad4daa3E@GOTPCREL(%rip)
.Ltmp571:
.LBB15_48:
.Ltmp415:
	.loc	46 0 1 is_stmt 0
	jmp	.LBB15_52
.Ltmp572:
.LBB15_51:
.Ltmp418:
.LBB15_52:
	movq	%rax, %r14
.Ltmp573:
.LBB15_53:
	.loc	46 3198 5 is_stmt 1
	movq	(%rsp), %rsi
.Ltmp574:
	.loc	46 0 5 is_stmt 0
	testq	%rsi, %rsi
.Ltmp575:
	.loc	41 512 12 is_stmt 1
	je	.LBB15_55
.Ltmp576:
	.loc	46 3198 5
	movq	8(%rsp), %rdi
.Ltmp577:
	.loc	8 119 14
	movl	$1, %edx
	callq	*__rust_dealloc@GOTPCREL(%rip)
.Ltmp578:
.LBB15_55:
	.loc	8 0 14 is_stmt 0
	movq	%r14, %rdi
	callq	_Unwind_Resume@PLT
.Lfunc_end15:
	.size	_ZN82_$LT$std..io..Lines$LT$B$GT$$u20$as$u20$core..iter..traits..iterator..Iterator$GT$4next17h4f94d81ea23e02a0E, .Lfunc_end15-_ZN82_$LT$std..io..Lines$LT$B$GT$$u20$as$u20$core..iter..traits..iterator..Iterator$GT$4next17h4f94d81ea23e02a0E
	.cfi_endproc
	.section	".rodata._ZN82_$LT$std..io..Lines$LT$B$GT$$u20$as$u20$core..iter..traits..iterator..Iterator$GT$4next17h4f94d81ea23e02a0E","a",@progbits
	.p2align	2, 0x0
.LJTI15_0:
	.long	.LBB15_37-.LJTI15_0
	.long	.LBB15_38-.LJTI15_0
	.long	.LBB15_44-.LJTI15_0
	.long	.LBB15_17-.LJTI15_0
	.file	55 "/rustc/90b35a6239c3d8bdabc530a6a0816f7ff89a0aaf/library/std/src/io/buffered" "bufreader.rs"
	.file	56 "/rustc/90b35a6239c3d8bdabc530a6a0816f7ff89a0aaf/library/alloc/src/vec" "spec_extend.rs"
	.section	".gcc_except_table._ZN82_$LT$std..io..Lines$LT$B$GT$$u20$as$u20$core..iter..traits..iterator..Iterator$GT$4next17h4f94d81ea23e02a0E","a",@progbits
	.p2align	2, 0x0
GCC_except_table15:
.Lexception1:
	.byte	255
	.byte	155
	.uleb128 .Lttbase0-.Lttbaseref0
.Lttbaseref0:
	.byte	1
	.uleb128 .Lcst_end1-.Lcst_begin1
.Lcst_begin1:
	.uleb128 .Lfunc_begin15-.Lfunc_begin15
	.uleb128 .Ltmp405-.Lfunc_begin15
	.byte	0
	.byte	0
	.uleb128 .Ltmp405-.Lfunc_begin15
	.uleb128 .Ltmp417-.Ltmp405
	.uleb128 .Ltmp418-.Lfunc_begin15
	.byte	0
	.uleb128 .Ltmp419-.Lfunc_begin15
	.uleb128 .Ltmp420-.Ltmp419
	.uleb128 .Ltmp421-.Lfunc_begin15
	.byte	0
	.uleb128 .Ltmp420-.Lfunc_begin15
	.uleb128 .Ltmp411-.Ltmp420
	.byte	0
	.byte	0
	.uleb128 .Ltmp411-.Lfunc_begin15
	.uleb128 .Ltmp412-.Ltmp411
	.uleb128 .Ltmp415-.Lfunc_begin15
	.byte	0
	.uleb128 .Ltmp412-.Lfunc_begin15
	.uleb128 .Ltmp422-.Ltmp412
	.byte	0
	.byte	0
	.uleb128 .Ltmp422-.Lfunc_begin15
	.uleb128 .Ltmp423-.Ltmp422
	.uleb128 .Ltmp424-.Lfunc_begin15
	.byte	0
	.uleb128 .Ltmp413-.Lfunc_begin15
	.uleb128 .Ltmp410-.Ltmp413
	.uleb128 .Ltmp415-.Lfunc_begin15
	.byte	0
	.uleb128 .Ltmp425-.Lfunc_begin15
	.uleb128 .Ltmp426-.Ltmp425
	.uleb128 .Ltmp427-.Lfunc_begin15
	.byte	1
	.uleb128 .Ltmp426-.Lfunc_begin15
	.uleb128 .Lfunc_end15-.Ltmp426
	.byte	0
	.byte	0
.Lcst_end1:
	.byte	127
	.byte	0
	.p2align	2, 0x0
.Lttbase0:
	.byte	0
	.p2align	2, 0x0

	.section	".text._ZN90_$LT$core..str..iter..Split$LT$P$GT$$u20$as$u20$core..iter..traits..iterator..Iterator$GT$4next17heb2dbfa61c7bd4d0E","ax",@progbits
	.p2align	4, 0x90
	.type	_ZN90_$LT$core..str..iter..Split$LT$P$GT$$u20$as$u20$core..iter..traits..iterator..Iterator$GT$4next17heb2dbfa61c7bd4d0E,@function
_ZN90_$LT$core..str..iter..Split$LT$P$GT$$u20$as$u20$core..iter..traits..iterator..Iterator$GT$4next17heb2dbfa61c7bd4d0E:
.Lfunc_begin16:
	.loc	38 514 0 is_stmt 1
	.cfi_startproc
	pushq	%rbp
	.cfi_def_cfa_offset 16
	pushq	%r15
	.cfi_def_cfa_offset 24
	pushq	%r14
	.cfi_def_cfa_offset 32
	pushq	%r13
	.cfi_def_cfa_offset 40
	pushq	%r12
	.cfi_def_cfa_offset 48
	pushq	%rbx
	.cfi_def_cfa_offset 56
	subq	$40, %rsp
	.cfi_def_cfa_offset 96
	.cfi_offset %rbx, -56
	.cfi_offset %r12, -48
	.cfi_offset %r13, -40
	.cfi_offset %r14, -32
	.cfi_offset %r15, -24
	.cfi_offset %rbp, -16
.Ltmp579:
	.loc	38 661 12 prologue_end
	cmpb	$0, 65(%rdi)
	je	.LBB16_2
.Ltmp580:
	.loc	38 0 12 is_stmt 0
	xorl	%eax, %eax
	.loc	38 661 12
	jmp	.LBB16_30
.Ltmp581:
.LBB16_2:
	.loc	38 0 12
	movq	%rdi, %rbx
	.loc	38 665 24 is_stmt 1
	movq	16(%rdi), %r13
	movq	24(%rdi), %rax
.Ltmp582:
	.loc	38 0 24 is_stmt 0
	movq	40(%rdi), %rbp
	movq	%rax, 24(%rsp)
	cmpq	%rax, %rbp
	seta	%al
	movq	32(%rdi), %r15
.Ltmp583:
	.loc	16 661 16 is_stmt 1
	cmpq	%r15, %rbp
	setb	%cl
	orb	%al, %cl
	jne	.LBB16_29
.Ltmp584:
	.loc	16 0 16 is_stmt 0
	movzbl	56(%rbx), %r8d
.Ltmp585:
	.loc	14 423 38 is_stmt 1
	movzbl	47(%rbx,%r8), %r14d
	cmpq	$4, %r8
	movq	%r8, 8(%rsp)
	jbe	.LBB16_4
.Ltmp586:
	.loc	14 0 38 is_stmt 0
	movzbl	%r14b, %r12d
.Ltmp587:
.LBB16_12:
	.loc	16 665 31 is_stmt 1
	movq	%rbp, %rdx
	subq	%r15, %rdx
.Ltmp588:
	.loc	17 117 14
	leaq	(%r15,%r13), %rsi
.Ltmp589:
	.loc	51 29 8
	cmpq	$16, %rdx
	jae	.LBB16_13
.Ltmp590:
	.loc	51 42 11
	cmpq	%r15, %rbp
	je	.LBB16_10
.Ltmp591:
	.loc	51 0 11 is_stmt 0
	xorl	%ecx, %ecx
.Ltmp592:
	.p2align	4, 0x90
.LBB16_19:
	.loc	51 43 12 is_stmt 1
	cmpb	%r14b, (%rsi,%rcx)
	je	.LBB16_15
.Ltmp593:
	.loc	51 47 9
	incq	%rcx
.Ltmp594:
	.loc	51 42 11
	cmpq	%rcx, %rdx
	jne	.LBB16_19
	jmp	.LBB16_10
.Ltmp595:
	.p2align	4, 0x90
.LBB16_13:
	.loc	51 33 5
	movl	%r12d, %edi
	callq	*_ZN4core5slice6memchr14memchr_aligned17hf6aa57362cec11a2E@GOTPCREL(%rip)
.Ltmp596:
	.loc	14 424 20
	cmpq	$1, %rax
	jne	.LBB16_28
.Ltmp597:
	.loc	14 0 20 is_stmt 0
	movq	%rdx, %rcx
	movq	8(%rsp), %r8
.Ltmp598:
.LBB16_15:
	.loc	14 442 17 is_stmt 1
	addq	%rcx, %r15
	incq	%r15
	movq	%r15, 32(%rbx)
	.loc	14 443 20
	cmpq	%r8, %r15
	setae	%al
	cmpq	24(%rsp), %r15
	setbe	%cl
.Ltmp599:
	testb	%cl, %al
	jne	.LBB16_27
.Ltmp600:
	.loc	16 661 16
	cmpq	%r15, %rbp
.Ltmp601:
	jae	.LBB16_12
	jmp	.LBB16_29
.Ltmp602:
.LBB16_4:
	.loc	16 0 16 is_stmt 0
	leaq	48(%rbx), %rax
	movq	%rax, 32(%rsp)
	movzbl	%r14b, %eax
	movl	%eax, 20(%rsp)
	jmp	.LBB16_5
.Ltmp603:
	.p2align	4, 0x90
.LBB16_24:
	.loc	16 661 16
	cmpq	%r15, %rbp
.Ltmp604:
	jb	.LBB16_29
.Ltmp605:
.LBB16_5:
	.loc	16 665 31 is_stmt 1
	movq	%rbp, %rdx
	subq	%r15, %rdx
.Ltmp606:
	.loc	17 117 14
	leaq	(%r15,%r13), %rsi
.Ltmp607:
	.loc	51 29 8
	cmpq	$15, %rdx
	ja	.LBB16_21
.Ltmp608:
	.loc	51 42 11
	cmpq	%r15, %rbp
	je	.LBB16_10
.Ltmp609:
	.loc	51 0 11 is_stmt 0
	xorl	%ecx, %ecx
.Ltmp610:
	.p2align	4, 0x90
.LBB16_8:
	.loc	51 43 12 is_stmt 1
	cmpb	%r14b, (%rsi,%rcx)
	je	.LBB16_23
.Ltmp611:
	.loc	51 47 9
	incq	%rcx
.Ltmp612:
	.loc	51 42 11
	cmpq	%rcx, %rdx
	jne	.LBB16_8
	jmp	.LBB16_10
.Ltmp613:
	.p2align	4, 0x90
.LBB16_21:
	.loc	51 0 11 is_stmt 0
	movl	20(%rsp), %edi
	.loc	51 33 5 is_stmt 1
	callq	*_ZN4core5slice6memchr14memchr_aligned17hf6aa57362cec11a2E@GOTPCREL(%rip)
.Ltmp614:
	.loc	14 424 20
	cmpq	$1, %rax
	jne	.LBB16_28
.Ltmp615:
	.loc	14 0 20 is_stmt 0
	movq	%rdx, %rcx
	movq	8(%rsp), %r8
.Ltmp616:
.LBB16_23:
	.loc	14 442 17 is_stmt 1
	addq	%rcx, %r15
	incq	%r15
	movq	%r15, 32(%rbx)
	.loc	14 443 20
	movq	%r15, %r12
	subq	%r8, %r12
	setae	%al
	cmpq	24(%rsp), %r15
	setbe	%cl
.Ltmp617:
	testb	%cl, %al
	je	.LBB16_24
.Ltmp618:
	.loc	17 117 14
	leaq	(%r12,%r13), %rdi
.Ltmp619:
	.loc	17 0 14 is_stmt 0
	movq	32(%rsp), %rsi
.Ltmp620:
	.loc	22 91 13 is_stmt 1
	movq	%r8, %rdx
	callq	*bcmp@GOTPCREL(%rip)
.Ltmp621:
	.loc	22 0 13 is_stmt 0
	movq	8(%rsp), %r8
	.loc	22 91 13
	testl	%eax, %eax
	jne	.LBB16_24
	jmp	.LBB16_26
.Ltmp622:
.LBB16_10:
	.loc	14 453 17 is_stmt 1
	movq	%rbp, 32(%rbx)
.Ltmp623:
.LBB16_29:
	.loc	38 647 13
	movb	$1, 65(%rbx)
	.loc	38 651 77
	movq	(%rbx), %rcx
	.loc	38 0 0 is_stmt 0
	movq	8(%rbx), %r12
	.loc	38 649 16 is_stmt 1
	addq	%rcx, %r13
	xorl	%eax, %eax
	subq	%rcx, %r12
	cmovneq	%r13, %rax
	cmpb	$0, 64(%rbx)
	cmovneq	%r13, %rax
.Ltmp624:
.LBB16_30:
	.loc	38 516 14
	movq	%r12, %rdx
	.loc	38 516 14 epilogue_begin is_stmt 0
	addq	$40, %rsp
	.cfi_def_cfa_offset 56
	popq	%rbx
	.cfi_def_cfa_offset 48
	popq	%r12
	.cfi_def_cfa_offset 40
	popq	%r13
	.cfi_def_cfa_offset 32
	popq	%r14
	.cfi_def_cfa_offset 24
	popq	%r15
	.cfi_def_cfa_offset 16
	popq	%rbp
	.cfi_def_cfa_offset 8
	retq
.Ltmp625:
.LBB16_28:
	.cfi_def_cfa_offset 96
	.loc	14 453 17 is_stmt 1
	movq	%rbp, 32(%rbx)
.Ltmp626:
	.loc	38 666 9
	testb	$1, %al
	je	.LBB16_29
.Ltmp627:
.LBB16_26:
	.loc	38 669 50
	movq	(%rbx), %rax
.Ltmp628:
	.loc	29 211 27
	subq	%rax, %r12
.Ltmp629:
	.loc	15 921 18
	addq	%rax, %r13
.Ltmp630:
	.loc	38 670 17
	movq	%r15, (%rbx)
	movq	%r13, %rax
.Ltmp631:
	.loc	38 0 17 is_stmt 0
	jmp	.LBB16_30
.Ltmp632:
.LBB16_27:
	.loc	17 465 13 is_stmt 1
	leaq	.L__unnamed_13(%rip), %rdx
	movl	$4, %esi
	movq	%r8, %rdi
	callq	*_ZN4core5slice5index24slice_end_index_len_fail17h8536b7c3e486e738E@GOTPCREL(%rip)
.Ltmp633:
.Lfunc_end16:
	.size	_ZN90_$LT$core..str..iter..Split$LT$P$GT$$u20$as$u20$core..iter..traits..iterator..Iterator$GT$4next17heb2dbfa61c7bd4d0E, .Lfunc_end16-_ZN90_$LT$core..str..iter..Split$LT$P$GT$$u20$as$u20$core..iter..traits..iterator..Iterator$GT$4next17heb2dbfa61c7bd4d0E
	.cfi_endproc
	.file	57 "/rustc/90b35a6239c3d8bdabc530a6a0816f7ff89a0aaf/library/core/src/array" "mod.rs"

	.section	.rodata.cst8,"aM",@progbits,8
	.p2align	3, 0x0
.LCPI17_0:
	.quad	0x412e848000000000
.LCPI17_1:
	.quad	0x41cdcd6500000000
.LCPI17_4:
	.quad	0x43e0000000000000
.LCPI17_5:
	.quad	0x43efffffffffffff
	.section	.rodata.cst16,"aM",@progbits,16
	.p2align	4, 0x0
.LCPI17_2:
	.long	1127219200
	.long	1160773632
	.long	0
	.long	0
.LCPI17_3:
	.quad	0x4330000000000000
	.quad	0x4530000000000000
	.section	.text._ZN13rdtsc_example4main17haa10bffd083b61e2E,"ax",@progbits
	.p2align	4, 0x90
	.type	_ZN13rdtsc_example4main17haa10bffd083b61e2E,@function
_ZN13rdtsc_example4main17haa10bffd083b61e2E:
.Lfunc_begin17:
	.file	58 "/home/fekerr/src/compfast/rdtsc_example" "src/main.rs"
	.loc	58 66 0
	.cfi_startproc
	.cfi_personality 155, DW.ref.rust_eh_personality
	.cfi_lsda 27, .Lexception2
	pushq	%rbp
	.cfi_def_cfa_offset 16
	pushq	%r15
	.cfi_def_cfa_offset 24
	pushq	%r14
	.cfi_def_cfa_offset 32
	pushq	%r13
	.cfi_def_cfa_offset 40
	pushq	%r12
	.cfi_def_cfa_offset 48
	pushq	%rbx
	.cfi_def_cfa_offset 56
	subq	$280, %rsp
	.cfi_def_cfa_offset 336
	.cfi_offset %rbx, -56
	.cfi_offset %r12, -48
	.cfi_offset %r13, -40
	.cfi_offset %r14, -32
	.cfi_offset %r15, -24
	.cfi_offset %rbp, -16
.Ltmp689:
	movabsq	$1881195675648, %rax
.Ltmp690:
	.file	59 "/rustc/90b35a6239c3d8bdabc530a6a0816f7ff89a0aaf/library/std/src" "fs.rs"
	.loc	59 1103 9 prologue_end
	movq	%rax, 32(%rsp)
.Ltmp691:
	movl	$0, 40(%rsp)
	movw	$0, 44(%rsp)
.Ltmp692:
	.file	60 "/rustc/90b35a6239c3d8bdabc530a6a0816f7ff89a0aaf/library/std/src/sys/pal/unix" "fs.rs"
	.loc	60 1093 9
	movb	$1, 40(%rsp)
.Ltmp693:
	.loc	59 1320 9
	leaq	.L__unnamed_14(%rip), %rdx
.Ltmp694:
	.loc	59 0 9 is_stmt 0
	leaq	112(%rsp), %r13
	leaq	32(%rsp), %rsi
	.loc	59 1320 9
	movl	$13, %ecx
	movq	%r13, %rdi
	callq	*_ZN3std2fs11OpenOptions5_open17h5861276320cd6fb8E@GOTPCREL(%rip)
.Ltmp695:
	.loc	42 854 9 is_stmt 1
	cmpl	$1, 112(%rsp)
	jne	.LBB17_8
.Ltmp696:
	.loc	42 856 17
	movq	120(%rsp), %rax
.Ltmp697:
	.loc	10 257 11
	movl	%eax, %ecx
	andl	$3, %ecx
	.loc	10 257 5 is_stmt 0
	cmpl	$1, %ecx
	jne	.LBB17_7
.Ltmp698:
	.loc	11 510 18 is_stmt 1
	leaq	-1(%rax), %rbx
.Ltmp699:
	.loc	6 574 1
	movq	-1(%rax), %r15
	movq	7(%rax), %r12
.Ltmp700:
	.loc	6 574 1 is_stmt 0
	movq	(%r12), %rax
.Ltmp701:
	testq	%rax, %rax
	je	.LBB17_4
.Ltmp702:
.Ltmp686:
	movq	%r15, %rdi
	callq	*%rax
.Ltmp687:
.LBB17_4:
.Ltmp703:
	.loc	12 396 14 is_stmt 1
	movq	8(%r12), %rsi
.Ltmp704:
	.loc	7 1678 16
	testq	%rsi, %rsi
	je	.LBB17_6
.Ltmp705:
	.loc	7 0 0 is_stmt 0
	movq	16(%r12), %rdx
.Ltmp706:
	.loc	8 119 14 is_stmt 1
	movq	%r15, %rdi
	callq	*__rust_dealloc@GOTPCREL(%rip)
.Ltmp707:
.LBB17_6:
	.loc	8 119 14 is_stmt 0
	movl	$24, %esi
	movl	$8, %edx
	movq	%rbx, %rdi
	callq	*__rust_dealloc@GOTPCREL(%rip)
.Ltmp708:
.LBB17_7:
	.loc	8 0 14
	leaq	.L__unnamed_15(%rip), %r14
	movl	$28, %r12d
	.loc	58 67 5 is_stmt 1
	jmp	.LBB17_46
.LBB17_8:
.Ltmp709:
	.loc	42 855 16
	movl	116(%rsp), %ebx
.Ltmp710:
	.loc	6 1813 9
	movq	__rust_no_alloc_shim_is_unstable@GOTPCREL(%rip), %rax
.Ltmp711:
	movzbl	(%rax), %eax
.Ltmp712:
	.loc	8 99 9
	movl	$8192, %edi
	movl	$1, %esi
	callq	*__rust_alloc@GOTPCREL(%rip)
.Ltmp713:
	.loc	41 469 25
	testq	%rax, %rax
	.loc	41 469 19 is_stmt 0
	je	.LBB17_146
.Ltmp714:
	.loc	41 0 19
	movabsq	$-9223372036854775807, %r12
	.loc	55 103 9 is_stmt 1
	xorpd	%xmm0, %xmm0
	movupd	%xmm0, 128(%rsp)
	movq	$0, 144(%rsp)
.Ltmp715:
	.loc	58 27 17
	movq	%rax, 112(%rsp)
	movq	$8192, 120(%rsp)
	movl	%ebx, 152(%rsp)
	leaq	112(%rsp), %r13
	leaq	-1(%r12), %rbx
.Ltmp716:
	.loc	58 0 17 is_stmt 0
	movq	__rust_dealloc@GOTPCREL(%rip), %r14
	movq	%rbx, 24(%rsp)
	jmp	.LBB17_10
.Ltmp717:
.LBB17_28:
	movq	24(%rsp), %rbx
	movq	__rust_dealloc@GOTPCREL(%rip), %r14
.Ltmp718:
	.p2align	4, 0x90
.LBB17_29:
	testq	%rbp, %rbp
.Ltmp719:
	.loc	41 512 12 is_stmt 1
	je	.LBB17_10
.Ltmp720:
.LBB17_30:
	.loc	8 119 14
	movl	$1, %edx
	movq	104(%rsp), %rdi
	movq	%rbp, %rsi
	callq	*%r14
.Ltmp721:
.LBB17_10:
.Ltmp634:
	.loc	58 27 17
	leaq	240(%rsp), %rdi
	movq	%r13, %rsi
	callq	_ZN82_$LT$std..io..Lines$LT$B$GT$$u20$as$u20$core..iter..traits..iterator..Iterator$GT$4next17h4f94d81ea23e02a0E
.Ltmp635:
.Ltmp722:
	movq	240(%rsp), %rbp
	cmpq	%r12, %rbp
	je	.LBB17_33
.Ltmp723:
	.loc	58 27 9 is_stmt 0
	movq	248(%rsp), %rcx
.Ltmp724:
	.loc	42 854 15 is_stmt 1
	cmpq	%rbx, %rbp
	.loc	42 854 9 is_stmt 0
	je	.LBB17_36
.Ltmp725:
	.loc	42 0 9
	movq	%rcx, 104(%rsp)
.Ltmp726:
	movq	256(%rsp), %rax
.Ltmp727:
	.loc	20 2550 9 is_stmt 1
	cmpq	$6, %rax
.Ltmp728:
	jbe	.LBB17_29
.Ltmp729:
	.loc	20 0 9 is_stmt 0
	movq	104(%rsp), %rdx
	movl	(%rdx), %ecx
.Ltmp730:
	.loc	22 91 13 is_stmt 1
	movl	$544567395, %esi
	xorl	%esi, %ecx
	movl	3(%rdx), %edx
	movl	$2051558688, %esi
	xorl	%esi, %edx
	orl	%ecx, %edx
.Ltmp731:
	.loc	58 29 12
	jne	.LBB17_29
.Ltmp732:
	.loc	27 1409 9
	movq	$0, 160(%rsp)
	movq	%rax, 168(%rsp)
	movq	104(%rsp), %rcx
	movq	%rcx, 176(%rsp)
	movq	%rax, 184(%rsp)
	movq	$0, 192(%rsp)
	movq	%rax, 200(%rsp)
	movabsq	$249108103226, %rax
.Ltmp733:
	movq	%rax, 208(%rsp)
	movb	$1, 216(%rsp)
	movw	$1, 224(%rsp)
.Ltmp734:
.Ltmp637:
	.file	61 "/rustc/90b35a6239c3d8bdabc530a6a0816f7ff89a0aaf/library/alloc/src/vec" "spec_from_iter_nested.rs"
	.loc	61 24 32
	leaq	160(%rsp), %rdi
	callq	_ZN90_$LT$core..str..iter..Split$LT$P$GT$$u20$as$u20$core..iter..traits..iterator..Iterator$GT$4next17heb2dbfa61c7bd4d0E
.Ltmp638:
.Ltmp735:
	movq	%rax, %rbx
	testq	%rax, %rax
	.loc	61 24 26 is_stmt 0
	je	.LBB17_28
.Ltmp736:
	.loc	61 0 0
	movq	%rdx, %r14
.Ltmp737:
	.loc	6 1813 9 is_stmt 1
	movq	__rust_no_alloc_shim_is_unstable@GOTPCREL(%rip), %rax
	movzbl	(%rax), %eax
.Ltmp738:
	.loc	8 99 9
	movl	$64, %edi
	movl	$8, %esi
	callq	*__rust_alloc@GOTPCREL(%rip)
.Ltmp739:
	.loc	41 469 25
	testq	%rax, %rax
	.loc	41 469 19 is_stmt 0
	je	.LBB17_145
.Ltmp740:
	.loc	61 0 0
	movq	%rax, %r15
.Ltmp741:
	.loc	6 1640 9 is_stmt 1
	movq	%rbx, (%rax)
	movq	%r14, 8(%rax)
.Ltmp742:
	.loc	61 36 17
	movq	$4, (%rsp)
	movq	%rax, 8(%rsp)
	movq	$1, 16(%rsp)
.Ltmp743:
	.loc	61 41 64
	movq	224(%rsp), %rax
	movq	%rax, 96(%rsp)
	movupd	160(%rsp), %xmm0
	movupd	176(%rsp), %xmm1
	movups	192(%rsp), %xmm2
	movups	208(%rsp), %xmm3
	movaps	%xmm3, 80(%rsp)
	movaps	%xmm2, 64(%rsp)
	movapd	%xmm1, 48(%rsp)
	movapd	%xmm0, 32(%rsp)
.Ltmp744:
.Ltmp640:
	.loc	44 3492 35
	leaq	32(%rsp), %rdi
	callq	_ZN90_$LT$core..str..iter..Split$LT$P$GT$$u20$as$u20$core..iter..traits..iterator..Iterator$GT$4next17heb2dbfa61c7bd4d0E
.Ltmp641:
.Ltmp745:
	movq	%rax, %r12
	testq	%rax, %rax
	.loc	44 3492 19 is_stmt 0
	je	.LBB17_31
.Ltmp746:
	.loc	44 0 19
	movq	%rdx, %r14
	movl	$1, %ebx
	movl	$24, %r13d
.Ltmp747:
	.p2align	4, 0x90
.LBB17_21:
	.loc	44 3494 16 is_stmt 1
	cmpq	(%rsp), %rbx
	jne	.LBB17_24
.Ltmp748:
.Ltmp643:
	.loc	41 547 13
	movl	$1, %edx
	movl	$8, %ecx
	movl	$16, %r8d
	movq	%rsp, %rdi
	movq	%rbx, %rsi
	callq	_ZN5alloc7raw_vec20RawVecInner$LT$A$GT$7reserve21do_reserve_and_handle17hcc43aedcb84c625fE
.Ltmp749:
.Ltmp644:
	.loc	41 497 9
	movq	8(%rsp), %r15
.Ltmp750:
.LBB17_24:
	.loc	6 1640 9
	movq	%r12, -8(%r15,%r13)
	movq	%r14, (%r15,%r13)
.Ltmp751:
	.loc	44 3503 30
	incq	%rbx
.Ltmp752:
	.loc	44 1883 9
	movq	%rbx, 16(%rsp)
.Ltmp753:
.Ltmp645:
	.loc	44 3492 35
	leaq	32(%rsp), %rdi
	callq	_ZN90_$LT$core..str..iter..Split$LT$P$GT$$u20$as$u20$core..iter..traits..iterator..Iterator$GT$4next17heb2dbfa61c7bd4d0E
.Ltmp646:
.Ltmp754:
	.loc	44 3492 0 is_stmt 0
	movq	%rax, %r12
.Ltmp755:
	movq	%rdx, %r14
.Ltmp756:
	.loc	44 3492 19
	addq	$16, %r13
	.loc	44 3492 35
	testq	%rax, %rax
	.loc	44 3492 19
	jne	.LBB17_21
.Ltmp757:
	.loc	61 42 9 is_stmt 1
	movq	(%rsp), %rsi
	movq	8(%rsp), %r15
.Ltmp758:
	.loc	17 255 12
	cmpq	$1, %rbx
	leaq	112(%rsp), %r13
	movabsq	$-9223372036854775807, %r12
	movq	__rust_dealloc@GOTPCREL(%rip), %r14
	ja	.LBB17_88
.Ltmp759:
	.loc	17 0 12 is_stmt 0
	testq	%rsi, %rsi
	movq	24(%rsp), %rbx
	jne	.LBB17_32
	jmp	.LBB17_29
.Ltmp760:
.LBB17_31:
	movl	$4, %esi
.Ltmp761:
	leaq	112(%rsp), %r13
	movabsq	$-9223372036854775807, %r12
	movq	24(%rsp), %rbx
	movq	__rust_dealloc@GOTPCREL(%rip), %r14
.Ltmp762:
.LBB17_32:
	.loc	16 922 17 is_stmt 1
	shlq	$4, %rsi
.Ltmp763:
	.loc	8 119 14
	movl	$8, %edx
	movq	%r15, %rdi
	callq	*%r14
.Ltmp764:
	.loc	8 0 14 is_stmt 0
	testq	%rbp, %rbp
	jne	.LBB17_30
	jmp	.LBB17_10
.Ltmp765:
.LBB17_33:
	.loc	6 574 1 is_stmt 1
	movq	120(%rsp), %rsi
.Ltmp766:
	.loc	7 1678 16
	testq	%rsi, %rsi
	je	.LBB17_35
.Ltmp767:
	.loc	6 574 1
	movq	112(%rsp), %rdi
.Ltmp768:
	.loc	8 119 14
	movl	$1, %edx
	callq	*__rust_dealloc@GOTPCREL(%rip)
.Ltmp769:
.LBB17_35:
	.loc	6 574 1
	movl	152(%rsp), %edi
.Ltmp770:
	.loc	9 191 25
	callq	*close@GOTPCREL(%rip)
	leaq	.L__unnamed_16(%rip), %r14
	movl	$28, %r12d
	jmp	.LBB17_45
.Ltmp771:
.LBB17_36:
	.loc	10 257 11
	movl	%ecx, %eax
	andl	$3, %eax
	leaq	.L__unnamed_17(%rip), %r14
	movl	$19, %r12d
	.loc	10 257 5 is_stmt 0
	cmpl	$1, %eax
	jne	.LBB17_42
.Ltmp772:
	.loc	10 0 5
	movq	%rbx, %rbp
.Ltmp773:
	.loc	11 510 18 is_stmt 1
	leaq	-1(%rcx), %rbx
.Ltmp774:
	.loc	6 574 1
	movq	-1(%rcx), %r15
	movq	7(%rcx), %r13
.Ltmp775:
	.loc	6 574 1 is_stmt 0
	movq	(%r13), %rax
	testq	%rax, %rax
	je	.LBB17_39
.Ltmp776:
.Ltmp654:
	movq	%r15, %rdi
	callq	*%rax
.Ltmp777:
.Ltmp655:
.LBB17_39:
	.loc	12 396 14 is_stmt 1
	movq	8(%r13), %rsi
.Ltmp778:
	.loc	7 1678 16
	testq	%rsi, %rsi
	je	.LBB17_41
.Ltmp779:
	.loc	7 0 0 is_stmt 0
	movq	16(%r13), %rdx
.Ltmp780:
	.loc	8 119 14 is_stmt 1
	movq	%r15, %rdi
	callq	*__rust_dealloc@GOTPCREL(%rip)
.Ltmp781:
.LBB17_41:
	.loc	8 119 14 is_stmt 0
	movl	$24, %esi
	movl	$8, %edx
	movq	%rbx, %rdi
	callq	*__rust_dealloc@GOTPCREL(%rip)
	leaq	112(%rsp), %r13
	movq	%rbp, %rbx
.Ltmp782:
.LBB17_42:
	.loc	6 574 1 is_stmt 1
	movq	120(%rsp), %rsi
.Ltmp783:
	.loc	7 1678 16
	testq	%rsi, %rsi
	je	.LBB17_44
.Ltmp784:
	.loc	6 574 1
	movq	112(%rsp), %rdi
.Ltmp785:
	.loc	8 119 14
	movl	$1, %edx
	callq	*__rust_dealloc@GOTPCREL(%rip)
.Ltmp786:
.LBB17_44:
	.loc	6 574 1
	movl	152(%rsp), %edi
.Ltmp787:
	.loc	9 191 25
	callq	*close@GOTPCREL(%rip)
.Ltmp788:
	.loc	58 67 11
	testq	%r14, %r14
	.loc	58 67 5 is_stmt 0
	je	.LBB17_48
.Ltmp789:
.LBB17_45:
	.loc	58 0 5
	leaq	112(%rsp), %r13
.LBB17_46:
	.loc	58 92 13 is_stmt 1
	movq	%r14, 112(%rsp)
	movq	%r12, 120(%rsp)
.Ltmp790:
	.loc	58 92 19 is_stmt 0
	movq	%r13, 160(%rsp)
	leaq	_ZN44_$LT$$RF$T$u20$as$u20$core..fmt..Display$GT$3fmt17h4b1c5b0c5db0c398E(%rip), %rax
	movq	%rax, 168(%rsp)
.Ltmp791:
	.loc	5 350 9 is_stmt 1
	leaq	.L__unnamed_18(%rip), %rax
	movq	%rax, 32(%rsp)
	movq	$2, 40(%rsp)
	movq	$0, 64(%rsp)
	leaq	160(%rsp), %rax
	movq	%rax, 48(%rsp)
	movq	$1, 56(%rsp)
	leaq	32(%rsp), %rdi
.Ltmp792:
	.loc	58 92 19
	callq	*_ZN3std2io5stdio6_print17he7d505d4f02a1803E@GOTPCREL(%rip)
.Ltmp793:
.LBB17_47:
	.loc	58 94 2 epilogue_begin
	addq	$280, %rsp
	.cfi_def_cfa_offset 56
	popq	%rbx
	.cfi_def_cfa_offset 48
	popq	%r12
	.cfi_def_cfa_offset 40
	popq	%r13
	.cfi_def_cfa_offset 32
	popq	%r14
	.cfi_def_cfa_offset 24
	popq	%r15
	.cfi_def_cfa_offset 16
	popq	%rbp
	.cfi_def_cfa_offset 8
	retq
.LBB17_48:
	.cfi_def_cfa_offset 336
	.loc	58 0 2 is_stmt 0
	movq	%rbx, %rbp
	.loc	58 68 12 is_stmt 1
	movq	%r12, %xmm0
.Ltmp794:
	.loc	58 0 12 is_stmt 0
	movq	%xmm0, 104(%rsp)
.Ltmp795:
	.loc	58 69 50 is_stmt 1
	divsd	.LCPI17_1(%rip), %xmm0
.Ltmp796:
	movsd	%xmm0, (%rsp)
	.loc	58 69 13 is_stmt 0
	movq	%rsp, %rax
	movq	%rax, 112(%rsp)
	movq	_ZN4core3fmt5float52_$LT$impl$u20$core..fmt..Display$u20$for$u20$f64$GT$3fmt17h12dae95f482fc6d5E@GOTPCREL(%rip), %r12
	movq	%r12, 120(%rsp)
.Ltmp797:
	movq	$0, 32(%rsp)
	movq	$2, 40(%rsp)
	movq	$2, 48(%rsp)
	movq	$0, 64(%rsp)
	movq	$32, 72(%rsp)
	movb	$3, 80(%rsp)
.Ltmp798:
	.loc	5 367 9 is_stmt 1
	leaq	.L__unnamed_19(%rip), %rax
.Ltmp799:
	movq	%rax, 160(%rsp)
	movq	$2, 168(%rsp)
	leaq	32(%rsp), %rax
.Ltmp800:
	movq	%rax, 192(%rsp)
	movq	$1, 200(%rsp)
	movq	%r13, 176(%rsp)
	movq	$1, 184(%rsp)
	leaq	160(%rsp), %rbx
.Ltmp801:
	.loc	58 69 13
	movq	%rbx, %rdi
	callq	*_ZN3std2io5stdio6_print17he7d505d4f02a1803E@GOTPCREL(%rip)
.Ltmp802:
	.loc	58 42 31
	callq	*sched_getcpu@GOTPCREL(%rip)
.Ltmp803:
	.file	62 "/rustc/90b35a6239c3d8bdabc530a6a0816f7ff89a0aaf/library/core/src/convert" "num.rs"
	.loc	62 234 20
	testl	%eax, %eax
	js	.LBB17_147
.Ltmp804:
	.loc	58 72 20
	movl	%eax, 112(%rsp)
.Ltmp805:
	.loc	58 72 29 is_stmt 0
	movq	%r13, 160(%rsp)
	movq	_ZN4core3fmt3num3imp52_$LT$impl$u20$core..fmt..Display$u20$for$u20$u32$GT$3fmt17h9a4153c5c33033b1E@GOTPCREL(%rip), %rax
	movq	%rax, 168(%rsp)
.Ltmp806:
	.loc	5 350 9 is_stmt 1
	leaq	.L__unnamed_20(%rip), %rax
	movq	%rax, 32(%rsp)
	movq	$2, 40(%rsp)
	movq	$0, 64(%rsp)
	movq	%rbx, 48(%rsp)
	movq	$1, 56(%rsp)
	leaq	32(%rsp), %rdi
.Ltmp807:
	.loc	58 72 29
	callq	*_ZN3std2io5stdio6_print17he7d505d4f02a1803E@GOTPCREL(%rip)
.Ltmp808:
	.loc	59 1103 9
	movabsq	$1881195675648, %rax
	movq	%rax, 32(%rsp)
.Ltmp809:
	movl	$0, 40(%rsp)
	movw	$0, 44(%rsp)
.Ltmp810:
	.loc	60 1093 9
	movb	$1, 40(%rsp)
.Ltmp811:
	.loc	59 1320 9
	leaq	.L__unnamed_14(%rip), %rdx
.Ltmp812:
	.loc	59 0 9 is_stmt 0
	leaq	160(%rsp), %r14
	leaq	32(%rsp), %rsi
	.loc	59 1320 9
	movl	$13, %ecx
	movq	%r14, %rdi
	callq	*_ZN3std2fs11OpenOptions5_open17h5861276320cd6fb8E@GOTPCREL(%rip)
.Ltmp813:
	.loc	42 854 9 is_stmt 1
	cmpl	$1, 160(%rsp)
	jne	.LBB17_57
.Ltmp814:
	.loc	42 856 17
	movq	168(%rsp), %rax
.Ltmp815:
	.loc	10 257 11
	movl	%eax, %ecx
	andl	$3, %ecx
	.loc	10 257 5 is_stmt 0
	cmpl	$1, %ecx
	jne	.LBB17_56
.Ltmp816:
	.loc	10 0 5
	movq	%r14, %rbp
	movq	%r12, %r14
.Ltmp817:
	.loc	11 510 18 is_stmt 1
	leaq	-1(%rax), %rbx
.Ltmp818:
	.loc	6 574 1
	movq	-1(%rax), %r15
	movq	7(%rax), %r12
.Ltmp819:
	.loc	6 574 1 is_stmt 0
	movq	(%r12), %rax
.Ltmp820:
	testq	%rax, %rax
	je	.LBB17_53
.Ltmp821:
.Ltmp680:
	movq	%r15, %rdi
	callq	*%rax
.Ltmp681:
.LBB17_53:
.Ltmp822:
	.loc	12 396 14 is_stmt 1
	movq	8(%r12), %rsi
.Ltmp823:
	.loc	7 1678 16
	testq	%rsi, %rsi
	je	.LBB17_55
.Ltmp824:
	.loc	7 0 0 is_stmt 0
	movq	16(%r12), %rdx
.Ltmp825:
	.loc	8 119 14 is_stmt 1
	movq	%r15, %rdi
	callq	*__rust_dealloc@GOTPCREL(%rip)
.Ltmp826:
.LBB17_55:
	.loc	8 119 14 is_stmt 0
	movl	$24, %esi
	movl	$8, %edx
	movq	%rbx, %rdi
	callq	*__rust_dealloc@GOTPCREL(%rip)
	movq	%r14, %r12
	movq	%rbp, %r14
.Ltmp827:
.LBB17_56:
	.loc	8 0 14
	leaq	.L__unnamed_15(%rip), %rax
.Ltmp828:
	movl	$28, %ecx
.Ltmp829:
	.loc	42 1997 9 is_stmt 1
	jmp	.LBB17_86
.Ltmp830:
.LBB17_57:
	.loc	42 855 16
	movl	164(%rsp), %ebx
.Ltmp831:
	.loc	6 1813 9
	movq	__rust_no_alloc_shim_is_unstable@GOTPCREL(%rip), %rax
	movzbl	(%rax), %eax
.Ltmp832:
	.loc	8 99 9
	movl	$8192, %edi
	movl	$1, %esi
	callq	*__rust_alloc@GOTPCREL(%rip)
.Ltmp833:
	.loc	41 469 25
	testq	%rax, %rax
	.loc	41 469 19 is_stmt 0
	je	.LBB17_148
.Ltmp834:
	.loc	55 103 9 is_stmt 1
	movq	%rax, 112(%rsp)
	movq	$8192, 120(%rsp)
	xorpd	%xmm0, %xmm0
	movupd	%xmm0, 128(%rsp)
	movq	$0, 144(%rsp)
	movl	%ebx, 152(%rsp)
.Ltmp835:
	.loc	5 339 9
	leaq	.L__unnamed_21(%rip), %rax
	movq	%rax, 32(%rsp)
	movq	$1, 40(%rsp)
	movq	$8, 48(%rsp)
	movupd	%xmm0, 56(%rsp)
.Ltmp657:
	leaq	32(%rsp), %rdi
.Ltmp836:
	.loc	58 55 5
	callq	*_ZN3std2io5stdio6_print17he7d505d4f02a1803E@GOTPCREL(%rip)
.Ltmp658:
.Ltmp837:
	.loc	58 56 17
	movupd	112(%rsp), %xmm0
	movupd	128(%rsp), %xmm1
	movups	144(%rsp), %xmm2
	movaps	%xmm2, 192(%rsp)
	movapd	%xmm1, 176(%rsp)
	movapd	%xmm0, 160(%rsp)
	leaq	240(%rsp), %r14
	leaq	160(%rsp), %r15
	leaq	.L__unnamed_22(%rip), %r12
	leaq	32(%rsp), %r13
	movq	_ZN3std2io5stdio6_print17he7d505d4f02a1803E@GOTPCREL(%rip), %rbx
.Ltmp838:
	.p2align	4, 0x90
.LBB17_60:
.Ltmp660:
	.loc	58 56 17 is_stmt 0
	movq	%r14, %rdi
	movq	%r15, %rsi
	callq	_ZN82_$LT$std..io..Lines$LT$B$GT$$u20$as$u20$core..iter..traits..iterator..Iterator$GT$4next17h4f94d81ea23e02a0E
.Ltmp661:
	movq	240(%rsp), %rax
	movabsq	$-9223372036854775807, %rcx
	cmpq	%rcx, %rax
	je	.LBB17_74
.Ltmp839:
	.loc	58 56 9
	movq	248(%rsp), %rdx
.Ltmp840:
	.loc	42 854 15 is_stmt 1
	cmpq	%rbp, %rax
	.loc	42 854 9 is_stmt 0
	je	.LBB17_77
.Ltmp841:
	.loc	58 0 0
	movq	256(%rsp), %rcx
.Ltmp842:
	.loc	58 57 20 is_stmt 1
	movq	%rax, (%rsp)
	movq	%rdx, 8(%rsp)
	movq	%rcx, 16(%rsp)
.Ltmp843:
.Ltmp663:
	.loc	27 1127 9
	movl	$9, %esi
	movq	%r12, %rdi
	callq	_ZN55_$LT$$RF$str$u20$as$u20$core..str..pattern..Pattern$GT$15is_contained_in17hf8206fecb7d2b9a9E
.Ltmp844:
.Ltmp664:
	.loc	58 58 12
	testb	%al, %al
	jne	.LBB17_71
.Ltmp845:
	.loc	41 497 9
	movq	8(%rsp), %rdx
.Ltmp846:
	.loc	44 1567 55
	movq	16(%rsp), %rcx
.Ltmp847:
.Ltmp665:
	.loc	27 1127 9
	movl	$10, %esi
	leaq	.L__unnamed_23(%rip), %rdi
	callq	_ZN55_$LT$$RF$str$u20$as$u20$core..str..pattern..Pattern$GT$15is_contained_in17hf8206fecb7d2b9a9E
.Ltmp848:
.Ltmp666:
	.loc	58 58 42
	testb	%al, %al
	jne	.LBB17_71
.Ltmp849:
	.loc	41 497 9
	movq	8(%rsp), %rdx
.Ltmp850:
	.loc	44 1567 55
	movq	16(%rsp), %rcx
.Ltmp851:
.Ltmp667:
	.loc	27 1127 9
	movl	$9, %esi
	leaq	.L__unnamed_24(%rip), %rdi
	callq	_ZN55_$LT$$RF$str$u20$as$u20$core..str..pattern..Pattern$GT$15is_contained_in17hf8206fecb7d2b9a9E
.Ltmp852:
.Ltmp668:
	.loc	58 59 13
	testb	%al, %al
	jne	.LBB17_71
.Ltmp853:
	.loc	41 497 9
	movq	8(%rsp), %rdx
.Ltmp854:
	.loc	44 1567 55
	movq	16(%rsp), %rcx
.Ltmp855:
.Ltmp669:
	.loc	27 1127 9
	movl	$7, %esi
	leaq	.L__unnamed_25(%rip), %rdi
	callq	_ZN55_$LT$$RF$str$u20$as$u20$core..str..pattern..Pattern$GT$15is_contained_in17hf8206fecb7d2b9a9E
.Ltmp856:
.Ltmp670:
	.loc	58 59 43
	testb	%al, %al
	je	.LBB17_72
	.p2align	4, 0x90
.LBB17_71:
	.loc	58 60 13
	movq	%rsp, %rax
	movq	%rax, 264(%rsp)
	leaq	_ZN60_$LT$alloc..string..String$u20$as$u20$core..fmt..Display$GT$3fmt17h6e7c1492a3cc2a04E(%rip), %rax
	movq	%rax, 272(%rsp)
.Ltmp857:
	.loc	5 350 9
	leaq	.L__unnamed_18(%rip), %rax
	movq	%rax, 32(%rsp)
	movq	$2, 40(%rsp)
	movq	$0, 64(%rsp)
	leaq	264(%rsp), %rax
	movq	%rax, 48(%rsp)
	movq	$1, 56(%rsp)
.Ltmp858:
.Ltmp671:
	.loc	58 60 13
	movq	%r13, %rdi
	callq	*%rbx
.Ltmp859:
.Ltmp672:
.LBB17_72:
	.loc	58 62 5
	movq	(%rsp), %rsi
.Ltmp860:
	.loc	58 0 5 is_stmt 0
	testq	%rsi, %rsi
.Ltmp861:
	.loc	41 512 12 is_stmt 1
	je	.LBB17_60
.Ltmp862:
	.loc	58 62 5
	movq	8(%rsp), %rdi
.Ltmp863:
	.loc	8 119 14
	movl	$1, %edx
	callq	*__rust_dealloc@GOTPCREL(%rip)
.Ltmp864:
	.loc	8 266 9
	jmp	.LBB17_60
.Ltmp865:
.LBB17_74:
	.loc	6 574 1
	movq	168(%rsp), %rsi
.Ltmp866:
	.loc	7 1678 16
	testq	%rsi, %rsi
	je	.LBB17_76
.Ltmp867:
	.loc	6 574 1
	movq	160(%rsp), %rdi
.Ltmp868:
	.loc	8 119 14
	movl	$1, %edx
	callq	*__rust_dealloc@GOTPCREL(%rip)
.Ltmp869:
.LBB17_76:
	.loc	6 574 1
	movl	200(%rsp), %edi
.Ltmp870:
	.loc	9 191 25
	callq	*close@GOTPCREL(%rip)
	leaq	112(%rsp), %r13
	movq	_ZN4core3fmt5float52_$LT$impl$u20$core..fmt..Display$u20$for$u20$f64$GT$3fmt17h12dae95f482fc6d5E@GOTPCREL(%rip), %r12
	leaq	160(%rsp), %r14
	jmp	.LBB17_87
.Ltmp871:
.LBB17_77:
	.loc	10 257 11
	movl	%edx, %eax
.Ltmp872:
	andl	$3, %eax
	.loc	10 257 5 is_stmt 0
	cmpl	$1, %eax
	leaq	112(%rsp), %r13
	leaq	160(%rsp), %r14
	jne	.LBB17_83
.Ltmp873:
	.loc	11 510 18 is_stmt 1
	leaq	-1(%rdx), %rbx
.Ltmp874:
	.loc	6 574 1
	movq	-1(%rdx), %r15
	movq	7(%rdx), %r12
.Ltmp875:
	.loc	6 574 1 is_stmt 0
	movq	(%r12), %rax
	testq	%rax, %rax
	je	.LBB17_80
.Ltmp876:
.Ltmp674:
	movq	%r15, %rdi
	callq	*%rax
.Ltmp877:
.Ltmp675:
.LBB17_80:
	.loc	12 396 14 is_stmt 1
	movq	8(%r12), %rsi
.Ltmp878:
	.loc	7 1678 16
	testq	%rsi, %rsi
	je	.LBB17_82
.Ltmp879:
	.loc	7 0 0 is_stmt 0
	movq	16(%r12), %rdx
.Ltmp880:
	.loc	8 119 14 is_stmt 1
	movq	%r15, %rdi
	callq	*__rust_dealloc@GOTPCREL(%rip)
.Ltmp881:
.LBB17_82:
	.loc	8 119 14 is_stmt 0
	movl	$24, %esi
	movl	$8, %edx
	movq	%rbx, %rdi
	callq	*__rust_dealloc@GOTPCREL(%rip)
.Ltmp882:
.LBB17_83:
	.loc	6 574 1 is_stmt 1
	movq	168(%rsp), %rsi
.Ltmp883:
	.loc	7 1678 16
	testq	%rsi, %rsi
	movq	_ZN4core3fmt5float52_$LT$impl$u20$core..fmt..Display$u20$for$u20$f64$GT$3fmt17h12dae95f482fc6d5E@GOTPCREL(%rip), %r12
	je	.LBB17_85
.Ltmp884:
	.loc	6 574 1
	movq	160(%rsp), %rdi
.Ltmp885:
	.loc	8 119 14
	movl	$1, %edx
	callq	*__rust_dealloc@GOTPCREL(%rip)
.Ltmp886:
.LBB17_85:
	.loc	6 574 1
	movl	200(%rsp), %edi
.Ltmp887:
	.loc	9 191 25
	callq	*close@GOTPCREL(%rip)
	leaq	.L__unnamed_17(%rip), %rax
	movl	$19, %ecx
.Ltmp888:
.LBB17_86:
	.loc	58 76 24
	movq	%rax, 112(%rsp)
	movq	%rcx, 120(%rsp)
	.loc	58 77 17
	movq	%r13, 160(%rsp)
	leaq	_ZN44_$LT$$RF$T$u20$as$u20$core..fmt..Display$GT$3fmt17h4b1c5b0c5db0c398E(%rip), %rax
	movq	%rax, 168(%rsp)
.Ltmp889:
	.loc	5 350 9
	leaq	.L__unnamed_18(%rip), %rax
	movq	%rax, 32(%rsp)
	movq	$2, 40(%rsp)
	movq	$0, 64(%rsp)
	movq	%r14, 48(%rsp)
	movq	$1, 56(%rsp)
	leaq	32(%rsp), %rdi
.Ltmp890:
	.loc	58 77 17
	callq	*_ZN3std2io5stdio6_print17he7d505d4f02a1803E@GOTPCREL(%rip)
.Ltmp891:
.LBB17_87:
	.loc	58 11 9
	#APP

	rdtsc

	#NO_APP
	movl	%edx, %ecx
.Ltmp892:
	.loc	58 13 5
	negl	%ecx
	shlq	$32, %rcx
	.loc	58 13 27 is_stmt 0
	movl	%eax, %esi
.Ltmp893:
	.loc	58 11 9 is_stmt 1
	#APP

	rdtsc

	#NO_APP
.Ltmp894:
	.loc	58 13 5
	shlq	$32, %rdx
.Ltmp895:
	.loc	58 13 27 is_stmt 0
	movl	%eax, %eax
.Ltmp896:
	.loc	58 13 5
	subq	%rsi, %rax
.Ltmp897:
	.loc	58 13 5
	addq	%rcx, %rax
.Ltmp898:
	.loc	58 85 35 is_stmt 1
	addq	%rdx, %rax
	movq	%rax, %xmm0
	punpckldq	.LCPI17_2(%rip), %xmm0
	subpd	.LCPI17_3(%rip), %xmm0
	movapd	%xmm0, %xmm1
	unpckhpd	%xmm0, %xmm1
	addsd	%xmm0, %xmm1
	divsd	104(%rsp), %xmm1
	movsd	%xmm1, (%rsp)
.Ltmp899:
	.loc	58 86 44
	movq	%rax, 112(%rsp)
	.loc	58 86 13 is_stmt 0
	movq	%r13, 160(%rsp)
	movq	_ZN4core3fmt3num3imp52_$LT$impl$u20$core..fmt..Display$u20$for$u20$u64$GT$3fmt17hdba3dd9f42f074dcE@GOTPCREL(%rip), %r15
	movq	%r15, 168(%rsp)
.Ltmp900:
	.loc	5 350 9 is_stmt 1
	leaq	.L__unnamed_26(%rip), %rax
	movq	%rax, 32(%rsp)
	movq	$2, 40(%rsp)
	movq	$0, 64(%rsp)
	movq	%r14, 48(%rsp)
	movq	$1, 56(%rsp)
.Ltmp901:
	.loc	58 86 13
	movq	_ZN3std2io5stdio6_print17he7d505d4f02a1803E@GOTPCREL(%rip), %r14
	leaq	32(%rsp), %rbx
	movq	%rbx, %rdi
	callq	*%r14
.Ltmp902:
	.loc	58 87 13
	movq	%rsp, %rax
	movq	%rax, 112(%rsp)
	movq	%r12, 120(%rsp)
.Ltmp903:
	movq	$0, 32(%rsp)
	movq	$6, 40(%rsp)
	movq	$2, 48(%rsp)
	movq	$0, 64(%rsp)
	movq	$32, 72(%rsp)
	movb	$3, 80(%rsp)
.Ltmp904:
	.loc	5 367 9
	leaq	.L__unnamed_27(%rip), %rax
.Ltmp905:
	movq	%rax, 160(%rsp)
	movq	$2, 168(%rsp)
	movq	%rbx, 192(%rsp)
	movq	$1, 200(%rsp)
	movq	%r13, 176(%rsp)
	movq	$1, 184(%rsp)
	leaq	160(%rsp), %rbx
.Ltmp906:
	.loc	58 87 13
	movq	%rbx, %rdi
	callq	*%r14
.Ltmp907:
	.loc	58 0 13 is_stmt 0
	movsd	.LCPI17_0(%rip), %xmm0
	.loc	58 89 37 is_stmt 1
	divsd	(%rsp), %xmm0
	cvttsd2si	%xmm0, %rax
	movq	%rax, %rcx
	sarq	$63, %rcx
	movapd	%xmm0, %xmm1
	subsd	.LCPI17_4(%rip), %xmm1
	cvttsd2si	%xmm1, %rdx
	andq	%rcx, %rdx
	orq	%rax, %rdx
	xorl	%eax, %eax
	xorpd	%xmm1, %xmm1
	ucomisd	%xmm1, %xmm0
	cmovaeq	%rdx, %rax
	ucomisd	.LCPI17_5(%rip), %xmm0
	movq	$-1, %rcx
	cmovbeq	%rax, %rcx
	movq	%rcx, 112(%rsp)
.Ltmp908:
	.loc	58 90 13
	movq	%r13, 160(%rsp)
	movq	%r15, 168(%rsp)
.Ltmp909:
	.loc	5 350 9
	leaq	.L__unnamed_28(%rip), %rax
	movq	%rax, 32(%rsp)
	movq	$2, 40(%rsp)
	movq	$0, 64(%rsp)
	movq	%rbx, 48(%rsp)
	movq	$1, 56(%rsp)
	leaq	32(%rsp), %rdi
.Ltmp910:
	.loc	58 90 13
	callq	*%r14
	jmp	.LBB17_47
.Ltmp911:
.LBB17_88:
	.loc	58 0 13 is_stmt 0
	movq	%rsi, %rax
.Ltmp912:
	.loc	58 32 28 is_stmt 1
	movq	16(%r15), %rsi
.Ltmp913:
	movq	24(%r15), %rcx
.Ltmp914:
	.loc	11 1005 18
	leaq	(%rsi,%rcx), %rdi
.Ltmp915:
	.loc	30 1709 9
	testq	%rcx, %rcx
	movq	24(%rsp), %rbx
.Ltmp916:
	.loc	30 0 9 is_stmt 0
	movq	%rax, 232(%rsp)
.Ltmp917:
	.loc	31 25 86 is_stmt 1
	je	.LBB17_112
.Ltmp918:
	.loc	31 0 86 is_stmt 0
	xorl	%edx, %edx
	movq	_ZN4core7unicode12unicode_data11white_space14WHITESPACE_MAP17h49248e077fedd3ffE@GOTPCREL(%rip), %r9
	movq	%rsi, %r8
	jmp	.LBB17_93
.Ltmp919:
.LBB17_90:
	.file	63 "/rustc/90b35a6239c3d8bdabc530a6a0816f7ff89a0aaf/library/core/src/unicode" "unicode_data.rs"
	.loc	63 582 34 is_stmt 1
	movzbl	%r10b, %r10d
.Ltmp920:
	.loc	63 582 19 is_stmt 0
	movzbl	(%r9,%r10), %r10d
	shrb	%r10b
.Ltmp921:
.LBB17_91:
	.loc	14 677 16 is_stmt 1
	testb	$1, %r10b
	je	.LBB17_113
.Ltmp922:
	.p2align	4, 0x90
.LBB17_92:
	.loc	30 1709 9
	cmpq	%rdi, %r8
.Ltmp923:
	.loc	31 25 86
	je	.LBB17_138
.Ltmp924:
.LBB17_93:
	.loc	31 0 86 is_stmt 0
	movq	%r8, %r11
	movq	%rdx, %rax
.Ltmp925:
	.loc	32 37 13 is_stmt 1
	movzbl	(%r8), %r10d
.Ltmp926:
	.loc	32 38 8
	testb	%r10b, %r10b
	js	.LBB17_95
.Ltmp927:
	.loc	32 0 0 is_stmt 0
	leaq	1(%r11), %r8
.Ltmp928:
	.loc	32 38 8
	jmp	.LBB17_101
.Ltmp929:
.LBB17_95:
	.loc	32 11 5 is_stmt 1
	movl	%r10d, %edx
	andl	$31, %edx
.Ltmp930:
	.loc	32 0 5 is_stmt 0
	movzbl	1(%r11), %r14d
.Ltmp931:
	.loc	32 17 17 is_stmt 1
	andl	$63, %r14d
.Ltmp932:
	.loc	32 50 8
	cmpb	$-33, %r10b
	jbe	.LBB17_98
.Ltmp933:
	.loc	32 0 8 is_stmt 0
	movzbl	2(%r11), %ebx
.Ltmp934:
	.loc	32 17 5 is_stmt 1
	shll	$6, %r14d
.Ltmp935:
	.loc	32 17 17 is_stmt 0
	andl	$63, %ebx
	.loc	32 17 5
	orl	%r14d, %ebx
.Ltmp936:
	.loc	32 58 12 is_stmt 1
	cmpb	$-16, %r10b
	jb	.LBB17_99
.Ltmp937:
	.loc	30 555 37
	leaq	4(%r11), %r8
	movzbl	3(%r11), %r10d
.Ltmp938:
	.loc	32 64 18
	andl	$7, %edx
.Ltmp939:
	shll	$18, %edx
.Ltmp940:
	.loc	32 17 5
	shll	$6, %ebx
.Ltmp941:
	.loc	32 17 17 is_stmt 0
	andl	$63, %r10d
	.loc	32 17 5
	orl	%ebx, %r10d
.Ltmp942:
	.loc	32 64 13 is_stmt 1
	orl	%edx, %r10d
.Ltmp943:
	.loc	32 0 13 is_stmt 0
	jmp	.LBB17_100
.Ltmp944:
.LBB17_98:
	leaq	2(%r11), %r8
.Ltmp945:
	shll	$6, %edx
.Ltmp946:
	orl	%r14d, %edx
.Ltmp947:
	movl	%edx, %r10d
.Ltmp948:
	.loc	32 50 8 is_stmt 1
	jmp	.LBB17_101
.Ltmp949:
.LBB17_99:
	.loc	32 0 0 is_stmt 0
	leaq	3(%r11), %r8
.Ltmp950:
	shll	$12, %edx
.Ltmp951:
	orl	%edx, %ebx
.Ltmp952:
	movl	%ebx, %r10d
.Ltmp953:
.LBB17_100:
	movq	24(%rsp), %rbx
.Ltmp954:
	.p2align	4, 0x90
.LBB17_101:
	.loc	38 192 38 is_stmt 1
	movq	%r8, %rdx
	subq	%r11, %rdx
	.loc	38 192 17 is_stmt 0
	addq	%rax, %rdx
.Ltmp955:
	.loc	33 861 9 is_stmt 1
	leal	-9(%r10), %r11d
	cmpl	$5, %r11d
	jb	.LBB17_92
.Ltmp956:
	cmpl	$32, %r10d
	je	.LBB17_92
.Ltmp957:
	.loc	33 863 18
	cmpl	$128, %r10d
	jb	.LBB17_113
.Ltmp958:
	.loc	63 579 15
	movl	%r10d, %r11d
	shrl	$8, %r11d
	.loc	63 579 9 is_stmt 0
	cmpl	$31, %r11d
	jg	.LBB17_108
.Ltmp959:
	testl	%r11d, %r11d
	je	.LBB17_111
.Ltmp960:
	cmpl	$22, %r11d
	jne	.LBB17_113
.Ltmp961:
	.loc	63 581 19 is_stmt 1
	cmpl	$5760, %r10d
	sete	%r10b
.Ltmp962:
	.loc	63 583 36
	jmp	.LBB17_91
.Ltmp963:
.LBB17_108:
	.loc	63 579 9
	cmpl	$32, %r11d
	je	.LBB17_90
.Ltmp964:
	cmpl	$48, %r11d
	jne	.LBB17_113
.Ltmp965:
	.loc	63 583 19
	cmpl	$12288, %r10d
	sete	%r10b
.Ltmp966:
	.loc	63 583 36 is_stmt 0
	jmp	.LBB17_91
.Ltmp967:
.LBB17_111:
	.loc	63 580 33 is_stmt 1
	movzbl	%r10b, %r10d
.Ltmp968:
	.loc	63 580 18 is_stmt 0
	movzbl	(%r9,%r10), %r10d
	.loc	63 580 59
	jmp	.LBB17_91
.Ltmp969:
.LBB17_112:
	.loc	63 0 59
	xorl	%eax, %eax
	xorl	%edx, %edx
	movq	%rsi, %r8
.Ltmp970:
.LBB17_113:
	.loc	30 1709 9 is_stmt 1
	cmpq	%rdi, %r8
.Ltmp971:
	.loc	31 25 86
	je	.LBB17_137
.Ltmp972:
	.loc	31 0 86 is_stmt 0
	movq	_ZN4core7unicode12unicode_data11white_space14WHITESPACE_MAP17h49248e077fedd3ffE@GOTPCREL(%rip), %r9
	jmp	.LBB17_118
.Ltmp973:
.LBB17_115:
	.loc	63 582 34 is_stmt 1
	movzbl	%r11b, %r11d
.Ltmp974:
	.loc	63 582 19 is_stmt 0
	movzbl	(%r9,%r11), %r11d
	shrb	%r11b
.Ltmp975:
.LBB17_116:
	.loc	14 697 16 is_stmt 1
	testb	$1, %r11b
	je	.LBB17_144
.Ltmp976:
.LBB17_117:
	.loc	30 1709 9
	cmpq	%rdi, %r8
.Ltmp977:
	.loc	31 25 86
	je	.LBB17_137
.Ltmp978:
.LBB17_118:
	.loc	31 0 86 is_stmt 0
	movq	%rdi, %r10
.Ltmp979:
	.loc	32 84 22 is_stmt 1
	movsbl	-1(%rdi), %r11d
	testl	%r11d, %r11d
.Ltmp980:
	js	.LBB17_120
.Ltmp981:
	.loc	32 0 0 is_stmt 0
	leaq	-1(%r10), %rdi
.Ltmp982:
	.loc	33 861 9 is_stmt 1
	leal	-9(%r11), %ebx
	cmpl	$5, %ebx
	jb	.LBB17_117
	jmp	.LBB17_127
.Ltmp983:
.LBB17_120:
	.loc	32 93 22
	movzbl	-2(%r10), %ebx
.Ltmp984:
	.loc	32 24 5
	cmpb	$-64, %bl
.Ltmp985:
	.loc	32 95 8
	jge	.LBB17_123
.Ltmp986:
	.loc	32 98 26
	movzbl	-3(%r10), %r14d
.Ltmp987:
	.loc	32 24 5
	cmpb	$-64, %r14b
.Ltmp988:
	.loc	32 100 12
	jge	.LBB17_124
.Ltmp989:
	.loc	30 479 37
	leaq	-4(%r10), %rdi
	movzbl	-4(%r10), %r12d
.Ltmp990:
	.loc	32 11 5
	andl	$7, %r12d
.Ltmp991:
	.loc	32 17 5
	shll	$6, %r12d
.Ltmp992:
	.loc	32 17 17 is_stmt 0
	andl	$63, %r14d
.Ltmp993:
	.loc	32 17 5
	orl	%r12d, %r14d
.Ltmp994:
	.loc	32 0 5
	jmp	.LBB17_125
.Ltmp995:
.LBB17_123:
	leaq	-2(%r10), %rdi
.Ltmp996:
	andl	$31, %ebx
.Ltmp997:
	.loc	32 95 8 is_stmt 1
	jmp	.LBB17_126
.Ltmp998:
.LBB17_124:
	.loc	32 0 0 is_stmt 0
	leaq	-3(%r10), %rdi
.Ltmp999:
	andl	$15, %r14d
.Ltmp1000:
.LBB17_125:
	.loc	32 17 5 is_stmt 1
	shll	$6, %r14d
.Ltmp1001:
	.loc	32 17 17 is_stmt 0
	andl	$63, %ebx
.Ltmp1002:
	.loc	32 17 5
	orl	%r14d, %ebx
.Ltmp1003:
.LBB17_126:
	.loc	32 17 5
	shll	$6, %ebx
.Ltmp1004:
	.loc	32 17 17
	andl	$63, %r11d
	.loc	32 17 5
	orl	%ebx, %r11d
.Ltmp1005:
	.loc	33 861 9 is_stmt 1
	leal	-9(%r11), %ebx
	cmpl	$5, %ebx
	jb	.LBB17_117
.Ltmp1006:
.LBB17_127:
	cmpl	$32, %r11d
	je	.LBB17_117
.Ltmp1007:
	.loc	33 863 18
	cmpl	$128, %r11d
	jb	.LBB17_144
.Ltmp1008:
	.loc	63 579 15
	movl	%r11d, %ebx
	shrl	$8, %ebx
	.loc	63 579 9 is_stmt 0
	cmpl	$31, %ebx
	jg	.LBB17_133
.Ltmp1009:
	testl	%ebx, %ebx
	je	.LBB17_136
.Ltmp1010:
	cmpl	$22, %ebx
	jne	.LBB17_144
.Ltmp1011:
	.loc	63 581 19 is_stmt 1
	cmpl	$5760, %r11d
	sete	%r11b
.Ltmp1012:
	.loc	63 583 36
	jmp	.LBB17_116
.Ltmp1013:
.LBB17_133:
	.loc	63 579 9
	cmpl	$32, %ebx
	je	.LBB17_115
.Ltmp1014:
	cmpl	$48, %ebx
	jne	.LBB17_144
.Ltmp1015:
	.loc	63 583 19
	cmpl	$12288, %r11d
	sete	%r11b
.Ltmp1016:
	.loc	63 583 36 is_stmt 0
	jmp	.LBB17_116
.Ltmp1017:
.LBB17_136:
	.loc	63 580 33 is_stmt 1
	movzbl	%r11b, %r11d
.Ltmp1018:
	.loc	63 580 18 is_stmt 0
	movzbl	(%r9,%r11), %r11d
	.loc	63 580 59
	jmp	.LBB17_116
.Ltmp1019:
.LBB17_137:
	.loc	30 1709 9 is_stmt 1
	testq	%rcx, %rcx
	movq	24(%rsp), %rbx
.Ltmp1020:
	.loc	27 2121 16
	jne	.LBB17_139
.Ltmp1021:
.LBB17_138:
	.loc	27 0 16 is_stmt 0
	xorl	%eax, %eax
	xorl	%edx, %edx
.Ltmp1022:
.LBB17_139:
	.loc	29 211 27 is_stmt 1
	subq	%rax, %rdx
.Ltmp1023:
	.loc	15 921 18
	addq	%rax, %rsi
.Ltmp1024:
.Ltmp648:
	.loc	15 0 18 is_stmt 0
	leaq	32(%rsp), %rdi
.Ltmp1025:
	.loc	27 2404 9 is_stmt 1
	callq	*_ZN4core3num7dec2flt60_$LT$impl$u20$core..str..traits..FromStr$u20$for$u20$f64$GT$8from_str17h09e405c67af91b3dE@GOTPCREL(%rip)
.Ltmp1026:
.Ltmp649:
	.loc	42 854 9
	movsd	40(%rsp), %xmm0
	xorl	%r14d, %r14d
.Ltmp1027:
	.loc	42 1997 9
	cmpb	$0, 32(%rsp)
.Ltmp1028:
	mulsd	.LCPI17_0(%rip), %xmm0
	leaq	.L__unnamed_29(%rip), %rax
	cmovneq	%rax, %r14
.Ltmp1029:
	.loc	58 0 0 is_stmt 0
	movq	%xmm0, %rax
	movl	$25, %r12d
	cmoveq	%rax, %r12
.Ltmp1030:
	movq	232(%rsp), %rsi
	testq	%rsi, %rsi
.Ltmp1031:
	.loc	41 512 12 is_stmt 1
	je	.LBB17_142
.Ltmp1032:
	.loc	16 922 17
	shlq	$4, %rsi
.Ltmp1033:
	.loc	8 119 14
	movl	$8, %edx
	movq	%r15, %rdi
	callq	*__rust_dealloc@GOTPCREL(%rip)
.Ltmp1034:
.LBB17_142:
	.loc	8 0 14 is_stmt 0
	testq	%rbp, %rbp
	je	.LBB17_42
.Ltmp1035:
	.loc	8 119 14
	movl	$1, %edx
	movq	104(%rsp), %rdi
	movq	%rbp, %rsi
	callq	*__rust_dealloc@GOTPCREL(%rip)
	jmp	.LBB17_42
.Ltmp1036:
.LBB17_144:
	.loc	8 0 14
	subq	%r8, %rdx
.Ltmp1037:
	addq	%r10, %rdx
	movq	24(%rsp), %rbx
	jmp	.LBB17_139
.Ltmp1038:
.LBB17_145:
.Ltmp651:
	.loc	41 420 25 is_stmt 1
	movl	$8, %edi
	movl	$64, %esi
	callq	*_ZN5alloc7raw_vec12handle_error17h082aba6c36a25221E@GOTPCREL(%rip)
.Ltmp652:
	jmp	.LBB17_149
.Ltmp1039:
.LBB17_146:
.Ltmp683:
	.loc	41 151 25
	movl	$1, %edi
	movl	$8192, %esi
	callq	*_ZN5alloc7raw_vec12handle_error17h082aba6c36a25221E@GOTPCREL(%rip)
.Ltmp684:
	jmp	.LBB17_149
.Ltmp1040:
.LBB17_147:
	.loc	42 1104 23
	leaq	.L__unnamed_30(%rip), %rdi
	leaq	.L__unnamed_2(%rip), %rcx
	leaq	.L__unnamed_31(%rip), %r8
	leaq	32(%rsp), %rdx
	movl	$43, %esi
	callq	*_ZN4core6result13unwrap_failed17hd20b4aa073bda1e2E@GOTPCREL(%rip)
.Ltmp1041:
.LBB17_148:
.Ltmp677:
	.loc	41 151 25
	movl	$1, %edi
	movl	$8192, %esi
	callq	*_ZN5alloc7raw_vec12handle_error17h082aba6c36a25221E@GOTPCREL(%rip)
.Ltmp1042:
.Ltmp678:
.LBB17_149:
	.loc	58 0 0 is_stmt 0
	ud2
.LBB17_150:
.Ltmp676:
	movq	%rax, %r14
.Ltmp1043:
	.loc	12 396 14 is_stmt 1
	movq	8(%r12), %rsi
.Ltmp1044:
	.loc	7 1678 16
	testq	%rsi, %rsi
	je	.LBB17_152
.Ltmp1045:
	.loc	7 0 0 is_stmt 0
	movq	16(%r12), %rdx
.Ltmp1046:
	.loc	8 119 14 is_stmt 1
	movq	%r15, %rdi
	callq	*__rust_dealloc@GOTPCREL(%rip)
.Ltmp1047:
.LBB17_152:
	.loc	8 119 14 is_stmt 0
	movl	$24, %esi
	movl	$8, %edx
	movq	%rbx, %rdi
	jmp	.LBB17_153
.Ltmp1048:
.LBB17_154:
.Ltmp682:
	.loc	8 0 14
	jmp	.LBB17_163
.LBB17_155:
.Ltmp1049:
.Ltmp650:
	movq	%rax, %r14
.Ltmp1050:
	cmpq	$0, 232(%rsp)
.Ltmp1051:
	.loc	41 512 12 is_stmt 1
	je	.LBB17_181
.Ltmp1052:
	.loc	41 0 12 is_stmt 0
	movq	232(%rsp), %rsi
.Ltmp1053:
	.loc	16 922 17 is_stmt 1
	jmp	.LBB17_179
.Ltmp1054:
.LBB17_157:
.Ltmp659:
	.loc	16 0 17 is_stmt 0
	movq	%rax, %r14
	leaq	112(%rsp), %rdi
.Ltmp1055:
	.loc	58 64 1 is_stmt 1
	callq	_ZN4core3ptr81drop_in_place$LT$std..io..buffered..bufreader..BufReader$LT$std..fs..File$GT$$GT$17h9ab421c5ceaad91dE
	movq	%r14, %rdi
	callq	_Unwind_Resume@PLT
.Ltmp1056:
.LBB17_158:
.Ltmp679:
	.loc	58 0 1 is_stmt 0
	jmp	.LBB17_167
.LBB17_159:
.Ltmp1057:
.Ltmp656:
	movq	%rax, %r14
.Ltmp1058:
	.loc	12 396 14 is_stmt 1
	movq	8(%r13), %rsi
.Ltmp1059:
	.loc	7 1678 16
	testq	%rsi, %rsi
	je	.LBB17_161
.Ltmp1060:
	.loc	7 0 0 is_stmt 0
	movq	16(%r13), %rdx
.Ltmp1061:
	.loc	8 119 14 is_stmt 1
	movq	%r15, %rdi
	callq	*__rust_dealloc@GOTPCREL(%rip)
.Ltmp1062:
.LBB17_161:
	.loc	8 119 14 is_stmt 0
	movl	$24, %esi
	movl	$8, %edx
	movq	%rbx, %rdi
	callq	*__rust_dealloc@GOTPCREL(%rip)
	leaq	112(%rsp), %rdi
.Ltmp1063:
	.loc	58 0 0
	callq	_ZN4core3ptr103drop_in_place$LT$std..io..Lines$LT$std..io..buffered..bufreader..BufReader$LT$std..fs..File$GT$$GT$$GT$17hf952232902766d22E
	movq	%r14, %rdi
	callq	_Unwind_Resume@PLT
.Ltmp1064:
.LBB17_162:
.Ltmp688:
.LBB17_163:
	movq	%rax, %r14
.Ltmp1065:
	movq	8(%r12), %rsi
	testq	%rsi, %rsi
	je	.LBB17_165
.Ltmp1066:
	movq	16(%r12), %rdx
.Ltmp1067:
	movq	%r15, %rdi
	callq	*__rust_dealloc@GOTPCREL(%rip)
.Ltmp1068:
.LBB17_165:
	movl	$24, %esi
	movl	$8, %edx
	movq	%rbx, %rdi
	callq	*__rust_dealloc@GOTPCREL(%rip)
	movq	%r14, %rdi
	callq	_Unwind_Resume@PLT
.Ltmp1069:
.LBB17_166:
.Ltmp685:
.LBB17_167:
	movq	%rax, %r14
.Ltmp1070:
	movl	%ebx, %edi
	callq	*close@GOTPCREL(%rip)
	movq	%r14, %rdi
	callq	_Unwind_Resume@PLT
.Ltmp1071:
.LBB17_168:
.Ltmp662:
	movq	%rax, %r14
	leaq	160(%rsp), %rdi
	callq	_ZN4core3ptr103drop_in_place$LT$std..io..Lines$LT$std..io..buffered..bufreader..BufReader$LT$std..fs..File$GT$$GT$$GT$17hf952232902766d22E
	movq	%r14, %rdi
	callq	_Unwind_Resume@PLT
.LBB17_169:
.Ltmp653:
	jmp	.LBB17_172
.LBB17_170:
.Ltmp1072:
.Ltmp642:
	movq	%rax, %r14
	movl	$64, %esi
.Ltmp1073:
	.loc	41 512 12 is_stmt 1
	jmp	.LBB17_180
.Ltmp1074:
.LBB17_171:
.Ltmp639:
.LBB17_172:
	.loc	41 0 12 is_stmt 0
	movq	%rax, %r14
	jmp	.LBB17_181
.LBB17_173:
.Ltmp673:
	movq	%rax, %r14
.Ltmp1075:
	.loc	58 62 5 is_stmt 1
	movq	(%rsp), %rsi
.Ltmp1076:
	.loc	58 0 5 is_stmt 0
	testq	%rsi, %rsi
.Ltmp1077:
	.loc	41 512 12 is_stmt 1
	jne	.LBB17_175
.Ltmp1078:
	.loc	41 0 12 is_stmt 0
	leaq	160(%rsp), %rdi
	callq	_ZN4core3ptr103drop_in_place$LT$std..io..Lines$LT$std..io..buffered..bufreader..BufReader$LT$std..fs..File$GT$$GT$$GT$17hf952232902766d22E
	movq	%r14, %rdi
	callq	_Unwind_Resume@PLT
.LBB17_175:
.Ltmp1079:
	.loc	58 62 5 is_stmt 1
	movq	8(%rsp), %rdi
.Ltmp1080:
	.loc	8 119 14
	movl	$1, %edx
.Ltmp1081:
.LBB17_153:
	.loc	58 0 0 is_stmt 0
	callq	*__rust_dealloc@GOTPCREL(%rip)
	leaq	160(%rsp), %rdi
.Ltmp1082:
	callq	_ZN4core3ptr103drop_in_place$LT$std..io..Lines$LT$std..io..buffered..bufreader..BufReader$LT$std..fs..File$GT$$GT$$GT$17hf952232902766d22E
	movq	%r14, %rdi
	callq	_Unwind_Resume@PLT
.LBB17_176:
.Ltmp636:
	movq	%rax, %r14
	leaq	112(%rsp), %rdi
	callq	_ZN4core3ptr103drop_in_place$LT$std..io..Lines$LT$std..io..buffered..bufreader..BufReader$LT$std..fs..File$GT$$GT$$GT$17hf952232902766d22E
	movq	%r14, %rdi
	callq	_Unwind_Resume@PLT
.LBB17_177:
.Ltmp1083:
.Ltmp647:
	movq	%rax, %r14
.Ltmp1084:
	.loc	61 43 5 is_stmt 1
	movq	(%rsp), %rsi
.Ltmp1085:
	.loc	61 0 5 is_stmt 0
	testq	%rsi, %rsi
.Ltmp1086:
	.loc	41 512 12 is_stmt 1
	je	.LBB17_181
.Ltmp1087:
	.loc	61 43 5
	movq	8(%rsp), %r15
.Ltmp1088:
.LBB17_179:
	.loc	58 0 0 is_stmt 0
	shlq	$4, %rsi
.Ltmp1089:
.LBB17_180:
	movl	$8, %edx
	movq	%r15, %rdi
	callq	*__rust_dealloc@GOTPCREL(%rip)
.Ltmp1090:
.LBB17_181:
	testq	%rbp, %rbp
.Ltmp1091:
	.loc	41 512 12 is_stmt 1
	je	.LBB17_183
.Ltmp1092:
	.loc	8 119 14
	movl	$1, %edx
	movq	104(%rsp), %rdi
	movq	%rbp, %rsi
	callq	*__rust_dealloc@GOTPCREL(%rip)
.Ltmp1093:
.LBB17_183:
	.loc	8 0 14 is_stmt 0
	leaq	112(%rsp), %rdi
	callq	_ZN4core3ptr103drop_in_place$LT$std..io..Lines$LT$std..io..buffered..bufreader..BufReader$LT$std..fs..File$GT$$GT$$GT$17hf952232902766d22E
	movq	%r14, %rdi
	callq	_Unwind_Resume@PLT
.Ltmp1094:
.Lfunc_end17:
	.size	_ZN13rdtsc_example4main17haa10bffd083b61e2E, .Lfunc_end17-_ZN13rdtsc_example4main17haa10bffd083b61e2E
	.cfi_endproc
	.file	64 "/rustc/90b35a6239c3d8bdabc530a6a0816f7ff89a0aaf/library/alloc/src/vec" "spec_from_iter.rs"
	.file	65 "/rustc/90b35a6239c3d8bdabc530a6a0816f7ff89a0aaf/library/core/src/convert" "mod.rs"
	.file	66 "/rustc/90b35a6239c3d8bdabc530a6a0816f7ff89a0aaf/library/std/src" "macros.rs"
	.section	.gcc_except_table._ZN13rdtsc_example4main17haa10bffd083b61e2E,"a",@progbits
	.p2align	2, 0x0
GCC_except_table17:
.Lexception2:
	.byte	255
	.byte	255
	.byte	1
	.uleb128 .Lcst_end2-.Lcst_begin2
.Lcst_begin2:
	.uleb128 .Lfunc_begin17-.Lfunc_begin17
	.uleb128 .Ltmp686-.Lfunc_begin17
	.byte	0
	.byte	0
	.uleb128 .Ltmp686-.Lfunc_begin17
	.uleb128 .Ltmp687-.Ltmp686
	.uleb128 .Ltmp688-.Lfunc_begin17
	.byte	0
	.uleb128 .Ltmp687-.Lfunc_begin17
	.uleb128 .Ltmp634-.Ltmp687
	.byte	0
	.byte	0
	.uleb128 .Ltmp634-.Lfunc_begin17
	.uleb128 .Ltmp635-.Ltmp634
	.uleb128 .Ltmp636-.Lfunc_begin17
	.byte	0
	.uleb128 .Ltmp637-.Lfunc_begin17
	.uleb128 .Ltmp638-.Ltmp637
	.uleb128 .Ltmp639-.Lfunc_begin17
	.byte	0
	.uleb128 .Ltmp640-.Lfunc_begin17
	.uleb128 .Ltmp641-.Ltmp640
	.uleb128 .Ltmp642-.Lfunc_begin17
	.byte	0
	.uleb128 .Ltmp643-.Lfunc_begin17
	.uleb128 .Ltmp646-.Ltmp643
	.uleb128 .Ltmp647-.Lfunc_begin17
	.byte	0
	.uleb128 .Ltmp646-.Lfunc_begin17
	.uleb128 .Ltmp654-.Ltmp646
	.byte	0
	.byte	0
	.uleb128 .Ltmp654-.Lfunc_begin17
	.uleb128 .Ltmp655-.Ltmp654
	.uleb128 .Ltmp656-.Lfunc_begin17
	.byte	0
	.uleb128 .Ltmp655-.Lfunc_begin17
	.uleb128 .Ltmp680-.Ltmp655
	.byte	0
	.byte	0
	.uleb128 .Ltmp680-.Lfunc_begin17
	.uleb128 .Ltmp681-.Ltmp680
	.uleb128 .Ltmp682-.Lfunc_begin17
	.byte	0
	.uleb128 .Ltmp657-.Lfunc_begin17
	.uleb128 .Ltmp658-.Ltmp657
	.uleb128 .Ltmp659-.Lfunc_begin17
	.byte	0
	.uleb128 .Ltmp660-.Lfunc_begin17
	.uleb128 .Ltmp661-.Ltmp660
	.uleb128 .Ltmp662-.Lfunc_begin17
	.byte	0
	.uleb128 .Ltmp663-.Lfunc_begin17
	.uleb128 .Ltmp672-.Ltmp663
	.uleb128 .Ltmp673-.Lfunc_begin17
	.byte	0
	.uleb128 .Ltmp674-.Lfunc_begin17
	.uleb128 .Ltmp675-.Ltmp674
	.uleb128 .Ltmp676-.Lfunc_begin17
	.byte	0
	.uleb128 .Ltmp675-.Lfunc_begin17
	.uleb128 .Ltmp648-.Ltmp675
	.byte	0
	.byte	0
	.uleb128 .Ltmp648-.Lfunc_begin17
	.uleb128 .Ltmp649-.Ltmp648
	.uleb128 .Ltmp650-.Lfunc_begin17
	.byte	0
	.uleb128 .Ltmp651-.Lfunc_begin17
	.uleb128 .Ltmp652-.Ltmp651
	.uleb128 .Ltmp653-.Lfunc_begin17
	.byte	0
	.uleb128 .Ltmp683-.Lfunc_begin17
	.uleb128 .Ltmp684-.Ltmp683
	.uleb128 .Ltmp685-.Lfunc_begin17
	.byte	0
	.uleb128 .Ltmp684-.Lfunc_begin17
	.uleb128 .Ltmp677-.Ltmp684
	.byte	0
	.byte	0
	.uleb128 .Ltmp677-.Lfunc_begin17
	.uleb128 .Ltmp678-.Ltmp677
	.uleb128 .Ltmp679-.Lfunc_begin17
	.byte	0
	.uleb128 .Ltmp678-.Lfunc_begin17
	.uleb128 .Lfunc_end17-.Ltmp678
	.byte	0
	.byte	0
.Lcst_end2:
	.p2align	2, 0x0

	.section	.text.main,"ax",@progbits
	.globl	main
	.p2align	4, 0x90
	.type	main,@function
main:
.Lfunc_begin18:
	.cfi_startproc
	pushq	%rax
	.cfi_def_cfa_offset 16
	movq	%rsi, %rcx
	movq	__rustc_debug_gdb_scripts_section__@GOTPCREL(%rip), %rax
	movzbl	(%rax), %eax
	movslq	%edi, %rdx
	leaq	_ZN13rdtsc_example4main17haa10bffd083b61e2E(%rip), %rax
	movq	%rax, (%rsp)
	leaq	.L__unnamed_1(%rip), %rsi
	movq	%rsp, %rdi
	xorl	%r8d, %r8d
	callq	*_ZN3std2rt19lang_start_internal17h1c66660c99c8424cE@GOTPCREL(%rip)
	popq	%rcx
	.cfi_def_cfa_offset 8
	retq
.Lfunc_end18:
	.size	main, .Lfunc_end18-main
	.cfi_endproc

	.type	.L__unnamed_32,@object
	.section	.rodata..L__unnamed_32,"a",@progbits
.L__unnamed_32:
	.ascii	"/rustc/90b35a6239c3d8bdabc530a6a0816f7ff89a0aaf/library/std/src/io/mod.rs"
	.size	.L__unnamed_32, 73

	.type	.L__unnamed_12,@object
	.section	.data.rel.ro..L__unnamed_12,"aw",@progbits
	.p2align	3, 0x0
.L__unnamed_12:
	.quad	.L__unnamed_32
	.asciz	"I\000\000\000\000\000\000\000?\b\000\0005\000\000"
	.size	.L__unnamed_12, 24

	.type	.L__unnamed_33,@object
	.section	.rodata..L__unnamed_33,"a",@progbits
.L__unnamed_33:
	.ascii	"stream did not contain valid UTF-8"
	.size	.L__unnamed_33, 34

	.type	.L__unnamed_11,@object
	.section	.data.rel.ro..L__unnamed_11,"aw",@progbits
	.p2align	3, 0x0
.L__unnamed_11:
	.quad	.L__unnamed_33
	.ascii	"\"\000\000\000\000\000\000\000\025"
	.zero	7
	.size	.L__unnamed_11, 24

	.type	.L__unnamed_1,@object
	.section	.data.rel.ro..L__unnamed_1,"aw",@progbits
	.p2align	3, 0x0
.L__unnamed_1:
	.asciz	"\000\000\000\000\000\000\000\000\b\000\000\000\000\000\000\000\b\000\000\000\000\000\000"
	.quad	_ZN4core3ops8function6FnOnce40call_once$u7b$$u7b$vtable.shim$u7d$$u7d$17hdbbab76d57fa2f78E
	.quad	_ZN3std2rt10lang_start28_$u7b$$u7b$closure$u7d$$u7d$17h696b52da83f75549E
	.quad	_ZN3std2rt10lang_start28_$u7b$$u7b$closure$u7d$$u7d$17h696b52da83f75549E
	.size	.L__unnamed_1, 48

	.type	.L__unnamed_4,@object
	.section	.rodata..L__unnamed_4,"a",@progbits
.L__unnamed_4:
	.ascii	"()"
	.size	.L__unnamed_4, 2

	.type	.L__unnamed_34,@object
	.section	.rodata..L__unnamed_34,"a",@progbits
.L__unnamed_34:
	.ascii	"/rustc/90b35a6239c3d8bdabc530a6a0816f7ff89a0aaf/library/core/src/str/pattern.rs"
	.size	.L__unnamed_34, 79

	.type	.L__unnamed_5,@object
	.section	.data.rel.ro..L__unnamed_5,"aw",@progbits
	.p2align	3, 0x0
.L__unnamed_5:
	.quad	.L__unnamed_34
	.asciz	"O\000\000\000\000\000\000\000\356\006\000\000I\000\000"
	.size	.L__unnamed_5, 24

	.type	.L__unnamed_9,@object
	.section	.data.rel.ro..L__unnamed_9,"aw",@progbits
	.p2align	3, 0x0
.L__unnamed_9:
	.quad	.L__unnamed_34
	.asciz	"O\000\000\000\000\000\000\000\310\005\000\000\024\000\000"
	.size	.L__unnamed_9, 24

	.type	.L__unnamed_7,@object
	.section	.data.rel.ro..L__unnamed_7,"aw",@progbits
	.p2align	3, 0x0
.L__unnamed_7:
	.quad	.L__unnamed_34
	.asciz	"O\000\000\000\000\000\000\000\310\005\000\000!\000\000"
	.size	.L__unnamed_7, 24

	.type	.L__unnamed_6,@object
	.section	.data.rel.ro..L__unnamed_6,"aw",@progbits
	.p2align	3, 0x0
.L__unnamed_6:
	.quad	.L__unnamed_34
	.asciz	"O\000\000\000\000\000\000\000\274\005\000\000!\000\000"
	.size	.L__unnamed_6, 24

	.type	.L__unnamed_2,@object
	.section	.data.rel.ro..L__unnamed_2,"aw",@progbits
	.p2align	3, 0x0
.L__unnamed_2:
	.asciz	"\000\000\000\000\000\000\000\000\000\000\000\000\000\000\000\000\001\000\000\000\000\000\000"
	.quad	_ZN70_$LT$core..num..error..TryFromIntError$u20$as$u20$core..fmt..Debug$GT$3fmt17h07776776eb9173e9E
	.size	.L__unnamed_2, 32

	.type	.L__unnamed_30,@object
	.section	.rodata..L__unnamed_30,"a",@progbits
.L__unnamed_30:
	.ascii	"called `Result::unwrap()` on an `Err` value"
	.size	.L__unnamed_30, 43

	.type	.L__unnamed_3,@object
	.section	.data.rel.ro..L__unnamed_3,"aw",@progbits
	.p2align	3, 0x0
.L__unnamed_3:
	.asciz	"\000\000\000\000\000\000\000\000\b\000\000\000\000\000\000\000\b\000\000\000\000\000\000"
	.quad	_ZN42_$LT$$RF$T$u20$as$u20$core..fmt..Debug$GT$3fmt17h4b05410ac63021adE
	.size	.L__unnamed_3, 32

	.type	.L__unnamed_10,@object
	.section	.rodata..L__unnamed_10,"a",@progbits
.L__unnamed_10:
	.ascii	"TryFromIntError"
	.size	.L__unnamed_10, 15

	.type	.L__unnamed_8,@object
	.section	.data.rel.ro..L__unnamed_8,"aw",@progbits
	.p2align	3, 0x0
.L__unnamed_8:
	.quad	.L__unnamed_34
	.asciz	"O\000\000\000\000\000\000\000L\004\000\000$\000\000"
	.size	.L__unnamed_8, 24

	.type	.L__unnamed_13,@object
	.section	.data.rel.ro..L__unnamed_13,"aw",@progbits
	.p2align	3, 0x0
.L__unnamed_13:
	.quad	.L__unnamed_34
	.asciz	"O\000\000\000\000\000\000\000\276\001\000\0007\000\000"
	.size	.L__unnamed_13, 24

	.type	.L__unnamed_35,@object
	.section	.rodata..L__unnamed_35,"a",@progbits
.L__unnamed_35:
	.ascii	"cpu MHz"
	.size	.L__unnamed_35, 7

	.type	.L__unnamed_14,@object
	.section	.rodata..L__unnamed_14,"a",@progbits
.L__unnamed_14:
	.ascii	"/proc/cpuinfo"
	.size	.L__unnamed_14, 13

	.type	.L__unnamed_15,@object
	.section	.rodata..L__unnamed_15,"a",@progbits
.L__unnamed_15:
	.ascii	"Failed to open /proc/cpuinfo"
	.size	.L__unnamed_15, 28

	.type	.L__unnamed_16,@object
	.section	.rodata..L__unnamed_16,"a",@progbits
.L__unnamed_16:
	.ascii	"Failed to find CPU frequency"
	.size	.L__unnamed_16, 28

	.type	.L__unnamed_17,@object
	.section	.rodata..L__unnamed_17,"a",@progbits
.L__unnamed_17:
	.ascii	"Failed to read line"
	.size	.L__unnamed_17, 19

	.type	.L__unnamed_29,@object
	.section	.rodata..L__unnamed_29,"a",@progbits
.L__unnamed_29:
	.ascii	"Failed to parse frequency"
	.size	.L__unnamed_29, 25

	.type	.L__unnamed_36,@object
	.section	.rodata..L__unnamed_36,"a",@progbits
.L__unnamed_36:
	.ascii	"src/main.rs"
	.size	.L__unnamed_36, 11

	.type	.L__unnamed_31,@object
	.section	.data.rel.ro..L__unnamed_31,"aw",@progbits
	.p2align	3, 0x0
.L__unnamed_31:
	.quad	.L__unnamed_36
	.asciz	"\013\000\000\000\000\000\000\000*\000\000\0009\000\000"
	.size	.L__unnamed_31, 24

	.type	.L__unnamed_37,@object
	.section	.rodata..L__unnamed_37,"a",@progbits
.L__unnamed_37:
	.ascii	"CPU Information:\n"
	.size	.L__unnamed_37, 17

	.type	.L__unnamed_21,@object
	.section	.data.rel.ro..L__unnamed_21,"aw",@progbits
	.p2align	3, 0x0
.L__unnamed_21:
	.quad	.L__unnamed_37
	.asciz	"\021\000\000\000\000\000\000"
	.size	.L__unnamed_21, 16

	.type	.L__unnamed_22,@object
	.section	.rodata..L__unnamed_22,"a",@progbits
.L__unnamed_22:
	.ascii	"processor"
	.size	.L__unnamed_22, 9

	.type	.L__unnamed_23,@object
	.section	.rodata..L__unnamed_23,"a",@progbits
.L__unnamed_23:
	.ascii	"model name"
	.size	.L__unnamed_23, 10

	.type	.L__unnamed_24,@object
	.section	.rodata..L__unnamed_24,"a",@progbits
.L__unnamed_24:
	.ascii	"cpu cores"
	.size	.L__unnamed_24, 9

	.type	.L__unnamed_25,@object
	.section	.rodata..L__unnamed_25,"a",@progbits
.L__unnamed_25:
	.ascii	"core id"
	.size	.L__unnamed_25, 7

	.type	.L__unnamed_38,@object
	.section	.rodata..L__unnamed_38,"a",@progbits
.L__unnamed_38:
	.byte	10
	.size	.L__unnamed_38, 1

	.type	.L__unnamed_18,@object
	.section	.data.rel.ro..L__unnamed_18,"aw",@progbits
	.p2align	3, 0x0
.L__unnamed_18:
	.quad	1
	.zero	8
	.quad	.L__unnamed_38
	.asciz	"\001\000\000\000\000\000\000"
	.size	.L__unnamed_18, 32

	.type	.L__unnamed_39,@object
	.section	.rodata..L__unnamed_39,"a",@progbits
.L__unnamed_39:
	.ascii	"Running on CPU core: "
	.size	.L__unnamed_39, 21

	.type	.L__unnamed_20,@object
	.section	.data.rel.ro..L__unnamed_20,"aw",@progbits
	.p2align	3, 0x0
.L__unnamed_20:
	.quad	.L__unnamed_39
	.asciz	"\025\000\000\000\000\000\000"
	.quad	.L__unnamed_38
	.asciz	"\001\000\000\000\000\000\000"
	.size	.L__unnamed_20, 32

	.type	.L__unnamed_40,@object
	.section	.rodata.cst16,"aM",@progbits,16
.L__unnamed_40:
	.ascii	"Elapsed cycles: "
	.size	.L__unnamed_40, 16

	.type	.L__unnamed_26,@object
	.section	.data.rel.ro..L__unnamed_26,"aw",@progbits
	.p2align	3, 0x0
.L__unnamed_26:
	.quad	.L__unnamed_40
	.asciz	"\020\000\000\000\000\000\000"
	.quad	.L__unnamed_38
	.asciz	"\001\000\000\000\000\000\000"
	.size	.L__unnamed_26, 32

	.type	.L__unnamed_41,@object
	.section	.rodata..L__unnamed_41,"a",@progbits
.L__unnamed_41:
	.ascii	"Estimated iterations for 1 second runtime: "
	.size	.L__unnamed_41, 43

	.type	.L__unnamed_28,@object
	.section	.data.rel.ro..L__unnamed_28,"aw",@progbits
	.p2align	3, 0x0
.L__unnamed_28:
	.quad	.L__unnamed_41
	.asciz	"+\000\000\000\000\000\000"
	.quad	.L__unnamed_38
	.asciz	"\001\000\000\000\000\000\000"
	.size	.L__unnamed_28, 32

	.type	.L__unnamed_42,@object
	.section	.rodata..L__unnamed_42,"a",@progbits
.L__unnamed_42:
	.ascii	"CPU Frequency: "
	.size	.L__unnamed_42, 15

	.type	.L__unnamed_43,@object
	.section	.rodata..L__unnamed_43,"a",@progbits
.L__unnamed_43:
	.ascii	" GHz\n"
	.size	.L__unnamed_43, 5

	.type	.L__unnamed_19,@object
	.section	.data.rel.ro..L__unnamed_19,"aw",@progbits
	.p2align	3, 0x0
.L__unnamed_19:
	.quad	.L__unnamed_42
	.asciz	"\017\000\000\000\000\000\000"
	.quad	.L__unnamed_43
	.asciz	"\005\000\000\000\000\000\000"
	.size	.L__unnamed_19, 32

	.type	.L__unnamed_44,@object
	.section	.rodata..L__unnamed_44,"a",@progbits
.L__unnamed_44:
	.ascii	"Elapsed time: "
	.size	.L__unnamed_44, 14

	.type	.L__unnamed_45,@object
	.section	.rodata..L__unnamed_45,"a",@progbits
.L__unnamed_45:
	.ascii	" seconds\n"
	.size	.L__unnamed_45, 9

	.type	.L__unnamed_27,@object
	.section	.data.rel.ro..L__unnamed_27,"aw",@progbits
	.p2align	3, 0x0
.L__unnamed_27:
	.quad	.L__unnamed_44
	.asciz	"\016\000\000\000\000\000\000"
	.quad	.L__unnamed_45
	.asciz	"\t\000\000\000\000\000\000"
	.size	.L__unnamed_27, 32

	.type	__rustc_debug_gdb_scripts_section__,@object
	.section	.debug_gdb_scripts,"aMS",@progbits,1,unique,1
	.weak	__rustc_debug_gdb_scripts_section__
__rustc_debug_gdb_scripts_section__:
	.asciz	"\001gdb_load_rust_pretty_printers.py"
	.size	__rustc_debug_gdb_scripts_section__, 34

	.section	.data.rel.ro..L__unnamed_1,"aw",@progbits
.Lsec_end0:
	.section	.data.rel.ro..L__unnamed_2,"aw",@progbits
.Lsec_end1:
	.section	.data.rel.ro..L__unnamed_3,"aw",@progbits
.Lsec_end2:
	.section	.text._ZN3std2rt10lang_start17hef94f62860eaa823E,"ax",@progbits
.Lsec_end3:
	.section	".text._ZN3std2rt10lang_start28_$u7b$$u7b$closure$u7d$$u7d$17h696b52da83f75549E","ax",@progbits
.Lsec_end4:
	.section	.text._ZN3std3sys9backtrace28__rust_begin_short_backtrace17h97a98e73875a52c9E,"ax",@progbits
.Lsec_end5:
	.section	".text._ZN42_$LT$$RF$T$u20$as$u20$core..fmt..Debug$GT$3fmt17h4b05410ac63021adE","ax",@progbits
.Lsec_end6:
	.section	".text._ZN44_$LT$$RF$T$u20$as$u20$core..fmt..Display$GT$3fmt17h4b1c5b0c5db0c398E","ax",@progbits
.Lsec_end7:
	.section	".text._ZN4core3ops8function6FnOnce40call_once$u7b$$u7b$vtable.shim$u7d$$u7d$17hdbbab76d57fa2f78E","ax",@progbits
.Lsec_end8:
	.section	".text._ZN4core3ptr103drop_in_place$LT$std..io..Lines$LT$std..io..buffered..bufreader..BufReader$LT$std..fs..File$GT$$GT$$GT$17hf952232902766d22E","ax",@progbits
.Lsec_end9:
	.section	".text._ZN4core3ptr78drop_in_place$LT$core..result..Result$LT$usize$C$std..io..error..Error$GT$$GT$17hc6b77c6352508005E","ax",@progbits
.Lsec_end10:
	.section	".text._ZN4core3ptr81drop_in_place$LT$std..io..buffered..bufreader..BufReader$LT$std..fs..File$GT$$GT$17h9ab421c5ceaad91dE","ax",@progbits
.Lsec_end11:
	.section	".text.unlikely._ZN4core3str7pattern13simd_contains28_$u7b$$u7b$closure$u7d$$u7d$17hda28f5e83485fd72E","ax",@progbits
.Lsec_end12:
	.section	".text._ZN55_$LT$$RF$str$u20$as$u20$core..str..pattern..Pattern$GT$15is_contained_in17hf8206fecb7d2b9a9E","ax",@progbits
.Lsec_end13:
	.section	.text._ZN5alloc7raw_vec11finish_grow17h442fe583d28a47f7E,"ax",@progbits
.Lsec_end14:
	.section	".text.unlikely._ZN5alloc7raw_vec20RawVecInner$LT$A$GT$7reserve21do_reserve_and_handle17hcc43aedcb84c625fE","ax",@progbits
.Lsec_end15:
	.section	".text._ZN60_$LT$alloc..string..String$u20$as$u20$core..fmt..Display$GT$3fmt17h6e7c1492a3cc2a04E","ax",@progbits
.Lsec_end16:
	.section	".text._ZN70_$LT$core..num..error..TryFromIntError$u20$as$u20$core..fmt..Debug$GT$3fmt17h07776776eb9173e9E","ax",@progbits
.Lsec_end17:
	.section	".text._ZN82_$LT$std..io..Lines$LT$B$GT$$u20$as$u20$core..iter..traits..iterator..Iterator$GT$4next17h4f94d81ea23e02a0E","ax",@progbits
.Lsec_end18:
	.section	".text._ZN90_$LT$core..str..iter..Split$LT$P$GT$$u20$as$u20$core..iter..traits..iterator..Iterator$GT$4next17heb2dbfa61c7bd4d0E","ax",@progbits
.Lsec_end19:
	.section	.text._ZN13rdtsc_example4main17haa10bffd083b61e2E,"ax",@progbits
.Lsec_end20:
	.section	.data.DW.ref.rust_eh_personality,"awG",@progbits,DW.ref.rust_eh_personality,comdat
	.p2align	3, 0x0
	.type	DW.ref.rust_eh_personality,@object
	.size	DW.ref.rust_eh_personality, 8
DW.ref.rust_eh_personality:
	.quad	rust_eh_personality
	.ident	"rustc version 1.83.0 (90b35a623 2024-11-26)"
	.section	".note.GNU-stack","",@progbits