	.text
	.file	"build_script_build.ee6cd82fd4a00beb-cgu.0"
	.section	".text._ZN102_$LT$core..str..iter..CharIndices$u20$as$u20$core..iter..traits..double_ended..DoubleEndedIterator$GT$9next_back17hd54c05af2a83f569E","ax",@progbits
	.p2align	4, 0x90
	.type	_ZN102_$LT$core..str..iter..CharIndices$u20$as$u20$core..iter..traits..double_ended..DoubleEndedIterator$GT$9next_back17hd54c05af2a83f569E,@function
_ZN102_$LT$core..str..iter..CharIndices$u20$as$u20$core..iter..traits..double_ended..DoubleEndedIterator$GT$9next_back17hd54c05af2a83f569E:
.Lfunc_begin0:
	.file	1 "/rustc/90b35a6239c3d8bdabc530a6a0816f7ff89a0aaf/library/core/src/str" "iter.rs"
	.loc	1 218 0
	.cfi_startproc
	subq	$200, %rsp
	.cfi_def_cfa_offset 208
	movq	%rdi, 8(%rsp)
	movq	%rdi, 80(%rsp)
.Ltmp0:
	.loc	1 219 9 prologue_end
	movq	%rdi, 96(%rsp)
.Ltmp1:
	.loc	1 131 18
	callq	_ZN4core3str11validations23next_code_point_reverse17hdc16dd62557ef3a9E
	movl	%eax, 56(%rsp)
	movl	%edx, 60(%rsp)
.Ltmp2:
	.file	2 "/rustc/90b35a6239c3d8bdabc530a6a0816f7ff89a0aaf/library/core/src" "option.rs"
	.loc	2 1112 15
	movl	56(%rsp), %eax
	.loc	2 1112 9 is_stmt 0
	cmpq	$0, %rax
	jne	.LBB0_2
	.loc	2 0 9
	movq	8(%rsp), %rax
	.loc	2 1114 21 is_stmt 1
	movl	$1114112, 36(%rsp)
.Ltmp3:
	.loc	1 219 35
	movq	%rax, %rcx
	addq	$16, %rcx
	movq	%rcx, 40(%rsp)
	movq	%rax, 48(%rsp)
	movq	40(%rsp), %rax
	movq	%rax, 64(%rsp)
	movq	48(%rsp), %rax
	movq	%rax, 72(%rsp)
.Ltmp4:
	.loc	2 1114 21
	movq	.L__unnamed_7(%rip), %rcx
	movl	.L__unnamed_7+8(%rip), %eax
	movq	%rcx, 16(%rsp)
	movl	%eax, 24(%rsp)
	.loc	2 1116 5
	jmp	.LBB0_3
.Ltmp5:
.LBB0_2:
	.loc	2 1113 18
	movl	60(%rsp), %eax
	movl	%eax, 4(%rsp)
	movl	%eax, 104(%rsp)
.Ltmp6:
	.file	3 "/rustc/90b35a6239c3d8bdabc530a6a0816f7ff89a0aaf/library/core/src" "ub_checks.rs"
	.loc	3 76 35
	jmp	.LBB0_4
.Ltmp7:
.LBB0_3:
	.loc	1 223 6
	movq	16(%rsp), %rax
	movl	24(%rsp), %edx
	.loc	1 223 6 epilogue_begin is_stmt 0
	addq	$200, %rsp
	.cfi_def_cfa_offset 8
	retq
.LBB0_4:
	.cfi_def_cfa_offset 208
	.loc	1 0 6
	movq	8(%rsp), %rax
	movl	4(%rsp), %ecx
.Ltmp8:
	.loc	2 1113 24 is_stmt 1
	movl	%ecx, 36(%rsp)
.Ltmp9:
	.loc	1 219 35
	movq	%rax, %rcx
	addq	$16, %rcx
	movq	%rcx, 40(%rsp)
	movq	%rax, 48(%rsp)
	movq	40(%rsp), %rax
	movq	%rax, 64(%rsp)
	movq	48(%rsp), %rax
	movq	%rax, 72(%rsp)
.Ltmp10:
	.loc	2 1113 18
	movl	36(%rsp), %eax
	movl	%eax, 108(%rsp)
.Ltmp11:
	.loc	2 1113 29 is_stmt 0
	movq	40(%rsp), %rcx
	movq	%rcx, 112(%rsp)
	movq	48(%rsp), %rcx
	movq	%rcx, 120(%rsp)
.Ltmp12:
	.loc	1 220 25 is_stmt 1
	movq	40(%rsp), %rcx
	movq	(%rcx), %rcx
	.loc	1 220 45 is_stmt 0
	movq	48(%rsp), %rsi
	movq	%rsi, 144(%rsp)
.Ltmp13:
	.file	4 "/rustc/90b35a6239c3d8bdabc530a6a0816f7ff89a0aaf/library/core/src/slice/iter" "macros.rs"
	.loc	4 33 34 is_stmt 1
	movq	%rsi, %rdx
	addq	$8, %rdx
	movq	%rdx, 152(%rsp)
	.loc	4 33 33 is_stmt 0
	movq	8(%rsi), %rdx
	movq	%rdx, 160(%rsp)
.Ltmp14:
	.loc	4 57 38 is_stmt 1
	movq	(%rsi), %rsi
	movq	%rsi, 168(%rsp)
.Ltmp15:
	.file	5 "/rustc/90b35a6239c3d8bdabc530a6a0816f7ff89a0aaf/library/core/src/ptr" "non_null.rs"
	.loc	5 853 18
	movq	%rdx, 176(%rsp)
	.loc	5 853 39 is_stmt 0
	movq	%rsi, 184(%rsp)
.Ltmp16:
	.file	6 "/rustc/90b35a6239c3d8bdabc530a6a0816f7ff89a0aaf/library/core/src/mem" "mod.rs"
	.loc	6 309 5 is_stmt 1
	movq	$1, 192(%rsp)
.Ltmp17:
	.file	7 "/rustc/90b35a6239c3d8bdabc530a6a0816f7ff89a0aaf/library/core/src/ptr" "const_ptr.rs"
	.loc	7 774 18
	subq	%rsi, %rdx
	movq	%rdx, 136(%rsp)
.Ltmp18:
	.loc	1 220 25
	addq	136(%rsp), %rcx
	movq	%rcx, 128(%rsp)
.Ltmp19:
	.loc	2 1113 24
	movq	%rcx, 16(%rsp)
	movl	%eax, 24(%rsp)
.Ltmp20:
	.loc	2 1113 33 is_stmt 0
	jmp	.LBB0_3
.Ltmp21:
.Lfunc_end0:
	.size	_ZN102_$LT$core..str..iter..CharIndices$u20$as$u20$core..iter..traits..double_ended..DoubleEndedIterator$GT$9next_back17hd54c05af2a83f569E, .Lfunc_end0-_ZN102_$LT$core..str..iter..CharIndices$u20$as$u20$core..iter..traits..double_ended..DoubleEndedIterator$GT$9next_back17hd54c05af2a83f569E
	.cfi_endproc
	.file	8 "/rustc/90b35a6239c3d8bdabc530a6a0816f7ff89a0aaf/library/core/src/char" "convert.rs"
	.file	9 "/rustc/90b35a6239c3d8bdabc530a6a0816f7ff89a0aaf/library/core/src/char" "methods.rs"

	.section	".text._ZN104_$LT$core..str..pattern..MultiCharEqSearcher$LT$C$GT$$u20$as$u20$core..str..pattern..ReverseSearcher$GT$9next_back17h860b325d705b98e6E","ax",@progbits
	.p2align	4, 0x90
	.type	_ZN104_$LT$core..str..pattern..MultiCharEqSearcher$LT$C$GT$$u20$as$u20$core..str..pattern..ReverseSearcher$GT$9next_back17h860b325d705b98e6E,@function
_ZN104_$LT$core..str..pattern..MultiCharEqSearcher$LT$C$GT$$u20$as$u20$core..str..pattern..ReverseSearcher$GT$9next_back17h860b325d705b98e6E:
.Lfunc_begin1:
	.file	10 "/rustc/90b35a6239c3d8bdabc530a6a0816f7ff89a0aaf/library/core/src/str" "pattern.rs"
	.loc	10 689 0 is_stmt 1
	.cfi_startproc
	subq	$264, %rsp
	.cfi_def_cfa_offset 272
	movq	%rsi, 24(%rsp)
	movq	%rdi, 32(%rsp)
	movq	%rdi, 40(%rsp)
	movq	%rsi, 80(%rsp)
.Ltmp22:
	.loc	10 690 17 prologue_end
	movq	%rsi, %rdi
	addq	$16, %rdi
	movq	%rdi, 48(%rsp)
	movq	%rdi, 88(%rsp)
	movq	%rdi, 208(%rsp)
.Ltmp23:
	.loc	4 33 34
	movq	%rdi, %rax
	addq	$8, %rax
	movq	%rax, 216(%rsp)
	.loc	4 33 33 is_stmt 0
	movq	24(%rsi), %rax
	movq	%rax, 224(%rsp)
.Ltmp24:
	.loc	4 57 38 is_stmt 1
	movq	16(%rsi), %rcx
	movq	%rcx, 232(%rsp)
.Ltmp25:
	.loc	5 853 18
	movq	%rax, 240(%rsp)
	.loc	5 853 39 is_stmt 0
	movq	%rcx, 248(%rsp)
.Ltmp26:
	.loc	6 309 5 is_stmt 1
	movq	$1, 256(%rsp)
.Ltmp27:
	.loc	7 774 18
	subq	%rcx, %rax
	movq	%rax, 200(%rsp)
.Ltmp28:
	.loc	4 143 14
	movq	200(%rsp), %rax
	movq	%rax, 56(%rsp)
.Ltmp29:
	.loc	10 693 23
	movq	%rax, 96(%rsp)
.Ltmp30:
	.loc	10 694 31
	callq	_ZN102_$LT$core..str..iter..CharIndices$u20$as$u20$core..iter..traits..double_ended..DoubleEndedIterator$GT$9next_back17hd54c05af2a83f569E
	movq	%rax, 64(%rsp)
	movl	%edx, 72(%rsp)
	movl	$1, %eax
	xorl	%ecx, %ecx
	cmpl	$1114112, 72(%rsp)
	cmoveq	%rcx, %rax
	.loc	10 694 16 is_stmt 0
	cmpq	$1, %rax
	jne	.LBB1_2
	.loc	10 0 16
	movq	24(%rsp), %rdi
	movq	56(%rsp), %rax
	movq	48(%rsp), %rdx
	.loc	10 694 22
	movq	64(%rsp), %rcx
	movq	%rcx, 8(%rsp)
	movq	%rcx, 104(%rsp)
	.loc	10 694 25
	movl	72(%rsp), %esi
	movl	%esi, 116(%rsp)
	movq	%rdx, 144(%rsp)
.Ltmp31:
	.loc	4 33 34 is_stmt 1
	movq	%rdx, %rcx
	addq	$8, %rcx
	movq	%rcx, 152(%rsp)
	.loc	4 33 33 is_stmt 0
	movq	8(%rdx), %rcx
	movq	%rcx, 160(%rsp)
.Ltmp32:
	.loc	4 57 38 is_stmt 1
	movq	(%rdx), %rdx
	movq	%rdx, 168(%rsp)
.Ltmp33:
	.loc	5 853 18
	movq	%rcx, 176(%rsp)
	.loc	5 853 39 is_stmt 0
	movq	%rdx, 184(%rsp)
.Ltmp34:
	.loc	6 309 5 is_stmt 1
	movq	$1, 192(%rsp)
.Ltmp35:
	.loc	7 774 18
	subq	%rdx, %rcx
	movq	%rcx, 136(%rsp)
.Ltmp36:
	.loc	4 143 14
	movq	136(%rsp), %rcx
.Ltmp37:
	.loc	10 695 23
	movq	%rcx, 120(%rsp)
.Ltmp38:
	.loc	10 696 28
	subq	%rcx, %rax
	movq	%rax, 16(%rsp)
	movq	%rax, 128(%rsp)
.Ltmp39:
	.loc	10 697 16
	addq	$40, %rdi
	callq	_ZN53_$LT$F$u20$as$u20$core..str..pattern..MultiCharEq$GT$7matches17h4bc0286440cd8e53E
	testb	$1, %al
	jne	.LBB1_4
	jmp	.LBB1_3
.Ltmp40:
.LBB1_2:
	.loc	10 0 16 is_stmt 0
	movq	32(%rsp), %rax
	.loc	10 703 9 is_stmt 1
	movq	$2, (%rax)
.Ltmp41:
	.loc	10 704 6
	jmp	.LBB1_6
.LBB1_3:
	.loc	10 0 6 is_stmt 0
	movq	32(%rsp), %rax
	movq	8(%rsp), %rdx
	movq	16(%rsp), %rsi
.Ltmp42:
	.loc	10 700 46 is_stmt 1
	movq	%rdx, %rcx
	addq	%rsi, %rcx
	.loc	10 700 24 is_stmt 0
	movq	%rdx, 8(%rax)
	movq	%rcx, 16(%rax)
	movq	$1, (%rax)
	.loc	10 700 17
	jmp	.LBB1_5
.LBB1_4:
	.loc	10 0 17
	movq	32(%rsp), %rax
	movq	8(%rsp), %rdx
	movq	16(%rsp), %rsi
	.loc	10 698 45 is_stmt 1
	movq	%rdx, %rcx
	addq	%rsi, %rcx
	.loc	10 698 24 is_stmt 0
	movq	%rdx, 8(%rax)
	movq	%rcx, 16(%rax)
	movq	$0, (%rax)
.Ltmp43:
.LBB1_5:
	.loc	10 704 6 is_stmt 1
	jmp	.LBB1_6
.LBB1_6:
	.loc	10 0 6 is_stmt 0
	movq	40(%rsp), %rax
	.loc	10 704 6 epilogue_begin
	addq	$264, %rsp
	.cfi_def_cfa_offset 8
	retq
.Ltmp44:
.Lfunc_end1:
	.size	_ZN104_$LT$core..str..pattern..MultiCharEqSearcher$LT$C$GT$$u20$as$u20$core..str..pattern..ReverseSearcher$GT$9next_back17h860b325d705b98e6E, .Lfunc_end1-_ZN104_$LT$core..str..pattern..MultiCharEqSearcher$LT$C$GT$$u20$as$u20$core..str..pattern..ReverseSearcher$GT$9next_back17h860b325d705b98e6E
	.cfi_endproc

	.section	".text._ZN105_$LT$std..ffi..os_str..OsString$u20$as$u20$core..ops..index..Index$LT$core..ops..range..RangeFull$GT$$GT$5index17hd835fa23ba1a680bE","ax",@progbits
	.p2align	4, 0x90
	.type	_ZN105_$LT$std..ffi..os_str..OsString$u20$as$u20$core..ops..index..Index$LT$core..ops..range..RangeFull$GT$$GT$5index17hd835fa23ba1a680bE,@function
_ZN105_$LT$std..ffi..os_str..OsString$u20$as$u20$core..ops..index..Index$LT$core..ops..range..RangeFull$GT$$GT$5index17hd835fa23ba1a680bE:
.Lfunc_begin2:
	.file	11 "/rustc/90b35a6239c3d8bdabc530a6a0816f7ff89a0aaf/library/std/src/ffi" "os_str.rs"
	.loc	11 595 0 is_stmt 1
	.cfi_startproc
	movq	%rdi, -96(%rsp)
.Ltmp45:
	.loc	11 596 27 prologue_end
	movq	%rdi, -80(%rsp)
.Ltmp46:
	.file	12 "/rustc/90b35a6239c3d8bdabc530a6a0816f7ff89a0aaf/library/std/src/sys/os_str" "bytes.rs"
	.loc	12 160 35
	movq	%rdi, -72(%rsp)
.Ltmp47:
	.file	13 "/rustc/90b35a6239c3d8bdabc530a6a0816f7ff89a0aaf/library/alloc/src/vec" "mod.rs"
	.loc	13 1662 9
	movq	%rdi, -64(%rsp)
.Ltmp48:
	.file	14 "/rustc/90b35a6239c3d8bdabc530a6a0816f7ff89a0aaf/library/alloc/src" "raw_vec.rs"
	.loc	14 284 9
	movq	%rdi, -56(%rsp)
.Ltmp49:
	.loc	14 497 9
	movq	8(%rdi), %rax
	movq	%rax, -112(%rsp)
	movq	%rax, -48(%rsp)
.Ltmp50:
	.loc	5 329 9
	movq	%rax, -40(%rsp)
.Ltmp51:
	.loc	5 427 18
	movq	%rax, -32(%rsp)
.Ltmp52:
	.loc	13 1567 55
	movq	16(%rdi), %rax
	movq	%rax, -104(%rsp)
	movq	%rax, -24(%rsp)
.Ltmp53:
	.loc	13 0 55 is_stmt 0
	movq	-104(%rsp), %rdx
	movq	-112(%rsp), %rax
	.loc	12 160 18 is_stmt 1
	movq	%rax, -16(%rsp)
	movq	%rdx, -8(%rsp)
.Ltmp54:
	.loc	11 597 6
	retq
.Ltmp55:
.Lfunc_end2:
	.size	_ZN105_$LT$std..ffi..os_str..OsString$u20$as$u20$core..ops..index..Index$LT$core..ops..range..RangeFull$GT$$GT$5index17hd835fa23ba1a680bE, .Lfunc_end2-_ZN105_$LT$std..ffi..os_str..OsString$u20$as$u20$core..ops..index..Index$LT$core..ops..range..RangeFull$GT$$GT$5index17hd835fa23ba1a680bE
	.cfi_endproc
	.file	15 "/rustc/90b35a6239c3d8bdabc530a6a0816f7ff89a0aaf/library/core/src/ptr" "unique.rs"

	.section	".text._ZN106_$LT$core..slice..iter..Iter$LT$T$GT$$u20$as$u20$core..iter..traits..double_ended..DoubleEndedIterator$GT$9next_back17h6ed9ef1ac59bb78fE","ax",@progbits
	.p2align	4, 0x90
	.type	_ZN106_$LT$core..slice..iter..Iter$LT$T$GT$$u20$as$u20$core..iter..traits..double_ended..DoubleEndedIterator$GT$9next_back17h6ed9ef1ac59bb78fE,@function
_ZN106_$LT$core..slice..iter..Iter$LT$T$GT$$u20$as$u20$core..iter..traits..double_ended..DoubleEndedIterator$GT$9next_back17h6ed9ef1ac59bb78fE:
.Lfunc_begin3:
	.loc	4 392 0
	.cfi_startproc
	subq	$56, %rsp
	.cfi_def_cfa_offset 64
	movq	%rdi, -112(%rsp)
	movq	%rdi, -64(%rsp)
.Ltmp56:
	.loc	4 118 46 prologue_end
	movq	$1, -56(%rsp)
.Ltmp57:
	.loc	5 625 35
	movq	$1, -48(%rsp)
.Ltmp58:
	.file	16 "/rustc/90b35a6239c3d8bdabc530a6a0816f7ff89a0aaf/library/core/src/num" "int_macros.rs"
	.loc	16 1167 43
	movq	$1, -40(%rsp)
.Ltmp59:
	.loc	5 471 38
	movq	$-1, -32(%rsp)
.Ltmp60:
	.loc	5 0 38 is_stmt 0
	movq	-112(%rsp), %rax
	.loc	4 33 34 is_stmt 1
	movq	%rax, %rcx
	addq	$8, %rcx
	movq	%rcx, -24(%rsp)
	.loc	4 33 33 is_stmt 0
	movq	8(%rax), %rcx
	movq	%rcx, -88(%rsp)
.Ltmp61:
	.loc	4 44 20 is_stmt 1
	movq	%rax, -16(%rsp)
	.loc	4 44 33 is_stmt 0
	leaq	-88(%rsp), %rcx
	movq	%rcx, -8(%rsp)
.Ltmp62:
	.loc	5 1709 9 is_stmt 1
	movq	(%rax), %rax
	movq	%rax, (%rsp)
	cmpq	-88(%rsp), %rax
	sete	%al
	andb	$1, %al
	movb	%al, -89(%rsp)
.Ltmp63:
	.loc	4 25 86
	testb	$1, -89(%rsp)
	jne	.LBB3_4
.Ltmp64:
	.loc	4 14 12
	jmp	.LBB3_5
.Ltmp65:
.LBB3_4:
	.loc	4 399 25
	movq	$0, -104(%rsp)
	.loc	4 398 21
	jmp	.LBB3_10
.LBB3_5:
	.loc	4 0 21 is_stmt 0
	movq	-112(%rsp), %rax
.Ltmp66:
	.loc	4 21 39 is_stmt 1
	movq	%rax, %rcx
	addq	$8, %rcx
	movq	%rcx, -128(%rsp)
	movq	%rcx, 8(%rsp)
.Ltmp67:
	.file	17 "/rustc/90b35a6239c3d8bdabc530a6a0816f7ff89a0aaf/library/core/src/ptr" "mut_ptr.rs"
	.loc	17 45 9
	movq	%rcx, 16(%rsp)
.Ltmp68:
	.loc	4 131 32
	movq	8(%rax), %rax
	movq	%rax, -120(%rsp)
	movq	%rax, 24(%rsp)
.Ltmp69:
	.loc	3 76 35
	jmp	.LBB3_7
.Ltmp70:
.LBB3_7:
	.loc	3 0 35 is_stmt 0
	movq	-120(%rsp), %rax
.Ltmp71:
	.loc	5 479 37 is_stmt 1
	addq	$-1, %rax
	.loc	5 479 18 is_stmt 0
	movq	%rax, -72(%rsp)
.Ltmp72:
	.loc	5 0 18
	movq	-128(%rsp), %rax
	.loc	4 131 25 is_stmt 1
	movq	-72(%rsp), %rcx
	movq	%rcx, (%rax)
	.loc	4 132 25
	movq	(%rax), %rax
	movq	%rax, -80(%rsp)
.Ltmp73:
	.loc	4 83 26
	leaq	-80(%rsp), %rax
	movq	%rax, 32(%rsp)
.Ltmp74:
	.loc	5 366 20
	movq	-80(%rsp), %rax
	movq	%rax, 40(%rsp)
.Ltmp75:
	.loc	5 329 9
	movq	%rax, 48(%rsp)
.Ltmp76:
	.loc	4 401 25
	movq	%rax, -104(%rsp)
.LBB3_10:
	.loc	4 404 14
	movq	-104(%rsp), %rax
	.loc	4 404 14 epilogue_begin is_stmt 0
	addq	$56, %rsp
	.cfi_def_cfa_offset 8
	retq
.Ltmp77:
.Lfunc_end3:
	.size	_ZN106_$LT$core..slice..iter..Iter$LT$T$GT$$u20$as$u20$core..iter..traits..double_ended..DoubleEndedIterator$GT$9next_back17h6ed9ef1ac59bb78fE, .Lfunc_end3-_ZN106_$LT$core..slice..iter..Iter$LT$T$GT$$u20$as$u20$core..iter..traits..double_ended..DoubleEndedIterator$GT$9next_back17h6ed9ef1ac59bb78fE
	.cfi_endproc

	.section	".text._ZN106_$LT$core..str..pattern..CharPredicateSearcher$LT$F$GT$$u20$as$u20$core..str..pattern..ReverseSearcher$GT$16next_reject_back17hd7656b6d2a12be48E","ax",@progbits
	.p2align	4, 0x90
	.type	_ZN106_$LT$core..str..pattern..CharPredicateSearcher$LT$F$GT$$u20$as$u20$core..str..pattern..ReverseSearcher$GT$16next_reject_back17hd7656b6d2a12be48E,@function
_ZN106_$LT$core..str..pattern..CharPredicateSearcher$LT$F$GT$$u20$as$u20$core..str..pattern..ReverseSearcher$GT$16next_reject_back17hd7656b6d2a12be48E:
.Lfunc_begin4:
	.loc	10 782 0 is_stmt 1
	.cfi_startproc
	subq	$24, %rsp
	.cfi_def_cfa_offset 32
	movq	%rdi, %rax
	movq	%rax, 8(%rsp)
	movq	%rsi, 16(%rsp)
.Ltmp78:
	.loc	10 783 13 prologue_end
	callq	_ZN4core3str7pattern15ReverseSearcher16next_reject_back17hb65704c84e79e5b1E
	movq	8(%rsp), %rax
	.loc	10 784 10 epilogue_begin
	addq	$24, %rsp
	.cfi_def_cfa_offset 8
	retq
.Ltmp79:
.Lfunc_end4:
	.size	_ZN106_$LT$core..str..pattern..CharPredicateSearcher$LT$F$GT$$u20$as$u20$core..str..pattern..ReverseSearcher$GT$16next_reject_back17hd7656b6d2a12be48E, .Lfunc_end4-_ZN106_$LT$core..str..pattern..CharPredicateSearcher$LT$F$GT$$u20$as$u20$core..str..pattern..ReverseSearcher$GT$16next_reject_back17hd7656b6d2a12be48E
	.cfi_endproc

	.section	".text._ZN119_$LT$alloc..collections..btree..map..BTreeMap$LT$K$C$V$C$A$GT$$u20$as$u20$core..iter..traits..collect..IntoIterator$GT$9into_iter17h46f9a1ae06583430E","ax",@progbits
	.p2align	4, 0x90
	.type	_ZN119_$LT$alloc..collections..btree..map..BTreeMap$LT$K$C$V$C$A$GT$$u20$as$u20$core..iter..traits..collect..IntoIterator$GT$9into_iter17h46f9a1ae06583430E,@function
_ZN119_$LT$alloc..collections..btree..map..BTreeMap$LT$K$C$V$C$A$GT$$u20$as$u20$core..iter..traits..collect..IntoIterator$GT$9into_iter17h46f9a1ae06583430E:
.Lfunc_begin5:
	.file	18 "/rustc/90b35a6239c3d8bdabc530a6a0816f7ff89a0aaf/library/alloc/src/collections/btree" "map.rs"
	.loc	18 1643 0
	.cfi_startproc
	subq	$520, %rsp
	.cfi_def_cfa_offset 528
	movq	%rdi, 16(%rsp)
	movq	%rdi, 24(%rsp)
	movq	.L__unnamed_8(%rip), %rdi
	movq	.L__unnamed_8+8(%rip), %rdx
	movq	.L__unnamed_8(%rip), %rcx
	movq	.L__unnamed_8+8(%rip), %rax
.Ltmp80:
	.loc	6 863 39 prologue_end
	movq	%rdi, 360(%rsp)
	movq	%rdx, 368(%rsp)
.Ltmp81:
	.file	19 "/rustc/90b35a6239c3d8bdabc530a6a0816f7ff89a0aaf/library/core/src/ptr" "mod.rs"
	.loc	19 1618 43
	movq	%rcx, 376(%rsp)
	movq	%rax, 384(%rsp)
.Ltmp82:
	.file	20 "/rustc/90b35a6239c3d8bdabc530a6a0816f7ff89a0aaf/library/core/src/mem" "manually_drop.rs"
	.loc	20 181 9
	movq	(%rsi), %rax
	movq	%rax, 32(%rsp)
	movq	8(%rsi), %rax
	movq	%rax, 40(%rsp)
	movq	16(%rsi), %rax
	movq	%rax, 48(%rsp)
.Ltmp83:
	.loc	18 1645 29
	leaq	32(%rsp), %rax
	movq	%rax, 392(%rsp)
	leaq	32(%rsp), %rax
	movq	%rax, 400(%rsp)
.Ltmp84:
	.loc	19 1435 9
	movq	32(%rsp), %rcx
	movq	40(%rsp), %rax
	movq	%rcx, 56(%rsp)
	movq	%rax, 64(%rsp)
.Ltmp85:
	.loc	19 1640 9
	movq	.L__unnamed_8(%rip), %rcx
	movq	.L__unnamed_8+8(%rip), %rax
	movq	%rcx, 32(%rsp)
	movq	%rax, 40(%rsp)
.Ltmp86:
	.loc	18 1645 29
	movq	56(%rsp), %rdx
	movl	$1, %eax
	xorl	%ecx, %ecx
	cmpq	$0, %rdx
	cmoveq	%rcx, %rax
	.loc	18 1645 16 is_stmt 0
	cmpq	$1, %rax
	jne	.LBB5_2
.Ltmp87:
	.loc	18 0 16
	movq	16(%rsp), %rdi
	.loc	18 1645 21
	movq	64(%rsp), %rcx
	movq	%rcx, 408(%rsp)
	movq	56(%rsp), %rax
	movq	%rax, 416(%rsp)
.Ltmp88:
	.file	21 "/rustc/90b35a6239c3d8bdabc530a6a0816f7ff89a0aaf/library/alloc/src/collections/btree" "node.rs"
	.loc	21 645 9 is_stmt 1
	movq	%rcx, 144(%rsp)
	movq	%rax, 136(%rsp)
.Ltmp89:
	.file	22 "/rustc/90b35a6239c3d8bdabc530a6a0816f7ff89a0aaf/library/alloc/src/collections/btree" "navigate.rs"
	.loc	22 369 40
	leaq	136(%rsp), %rax
	movq	%rax, 424(%rsp)
.Ltmp90:
	.loc	19 1435 9
	movq	136(%rsp), %rcx
	movq	144(%rsp), %rax
	movq	%rcx, 432(%rsp)
	movq	%rax, 440(%rsp)
.Ltmp91:
	.loc	22 370 20
	movq	136(%rsp), %rsi
.Ltmp92:
	movq	144(%rsp), %rdx
	movq	%rsi, 448(%rsp)
	movq	%rdx, 456(%rsp)
.Ltmp93:
	.loc	22 306 21
	movq	%rsi, 256(%rsp)
	movq	%rdx, 264(%rsp)
	movq	$0, 248(%rsp)
	.loc	22 306 16 is_stmt 0
	movq	248(%rsp), %rdx
	movq	%rdx, 224(%rsp)
	movq	256(%rsp), %rdx
	movq	%rdx, 232(%rsp)
	movq	264(%rsp), %rdx
	movq	%rdx, 240(%rsp)
	movq	$1, 216(%rsp)
	.loc	22 307 20 is_stmt 1
	movq	%rcx, 312(%rsp)
	movq	%rax, 320(%rsp)
	movq	$0, 304(%rsp)
	.loc	22 307 15 is_stmt 0
	movq	304(%rsp), %rax
	movq	%rax, 280(%rsp)
	movq	312(%rsp), %rax
	movq	%rax, 288(%rsp)
	movq	320(%rsp), %rax
	movq	%rax, 296(%rsp)
	movq	$1, 272(%rsp)
	.loc	22 305 5 is_stmt 1
	movq	216(%rsp), %rax
	movq	%rax, 72(%rsp)
	movq	224(%rsp), %rax
	movq	%rax, 80(%rsp)
	movq	232(%rsp), %rax
	movq	%rax, 88(%rsp)
	movq	240(%rsp), %rax
	movq	%rax, 96(%rsp)
	movq	272(%rsp), %rax
	movq	%rax, 104(%rsp)
	movq	280(%rsp), %rax
	movq	%rax, 112(%rsp)
	movq	288(%rsp), %rax
	movq	%rax, 120(%rsp)
	movq	296(%rsp), %rax
	movq	%rax, 128(%rsp)
.Ltmp94:
	.loc	18 1650 25
	leaq	32(%rsp), %rax
	movq	%rax, 464(%rsp)
	movq	48(%rsp), %rax
	movq	%rax, 8(%rsp)
	.loc	18 1651 57
	leaq	32(%rsp), %rax
	movq	%rax, 472(%rsp)
	.loc	18 1651 52 is_stmt 0
	leaq	32(%rsp), %rax
	addq	$24, %rax
	movq	%rax, 480(%rsp)
.Ltmp95:
	.loc	20 223 28 is_stmt 1
	leaq	32(%rsp), %rax
	addq	$24, %rax
	movq	%rax, 488(%rsp)
.Ltmp96:
	.loc	18 1648 13
	leaq	72(%rsp), %rsi
	movl	$64, %edx
	callq	memcpy@PLT
	movq	8(%rsp), %rcx
	movq	16(%rsp), %rax
	movq	%rcx, 64(%rax)
.Ltmp97:
	.loc	18 1645 9
	jmp	.LBB5_3
.Ltmp98:
.LBB5_2:
	.loc	18 0 9 is_stmt 0
	movq	16(%rsp), %rdi
.Ltmp99:
	.loc	22 146 32 is_stmt 1
	movq	$0, 328(%rsp)
	.loc	22 146 9 is_stmt 0
	movq	328(%rsp), %rax
	movq	%rax, 152(%rsp)
	movq	336(%rsp), %rax
	movq	%rax, 160(%rsp)
	movq	344(%rsp), %rax
	movq	%rax, 168(%rsp)
	movq	352(%rsp), %rax
	movq	%rax, 176(%rsp)
	movq	328(%rsp), %rax
	movq	%rax, 184(%rsp)
	movq	336(%rsp), %rax
	movq	%rax, 192(%rsp)
	movq	344(%rsp), %rax
	movq	%rax, 200(%rsp)
	movq	352(%rsp), %rax
	movq	%rax, 208(%rsp)
.Ltmp100:
	.loc	18 1657 57 is_stmt 1
	leaq	32(%rsp), %rax
	movq	%rax, 496(%rsp)
	.loc	18 1657 52 is_stmt 0
	leaq	32(%rsp), %rax
	addq	$24, %rax
	movq	%rax, 504(%rsp)
.Ltmp101:
	.loc	20 223 28 is_stmt 1
	leaq	32(%rsp), %rax
	addq	$24, %rax
	movq	%rax, 512(%rsp)
.Ltmp102:
	.loc	18 1654 13
	leaq	152(%rsp), %rsi
.Ltmp103:
	movl	$64, %edx
	callq	memcpy@PLT
	movq	16(%rsp), %rax
	movq	$0, 64(%rax)
.Ltmp104:
.LBB5_3:
	.loc	18 0 13 is_stmt 0
	movq	24(%rsp), %rax
	.loc	18 1660 6 epilogue_begin is_stmt 1
	addq	$520, %rsp
	.cfi_def_cfa_offset 8
	retq
.Ltmp105:
.Lfunc_end5:
	.size	_ZN119_$LT$alloc..collections..btree..map..BTreeMap$LT$K$C$V$C$A$GT$$u20$as$u20$core..iter..traits..collect..IntoIterator$GT$9into_iter17h46f9a1ae06583430E, .Lfunc_end5-_ZN119_$LT$alloc..collections..btree..map..BTreeMap$LT$K$C$V$C$A$GT$$u20$as$u20$core..iter..traits..collect..IntoIterator$GT$9into_iter17h46f9a1ae06583430E
	.cfi_endproc

	.section	".text._ZN145_$LT$core..option..Option$LT$T$GT$$u20$as$u20$core..ops..try_trait..FromResidual$LT$core..option..Option$LT$core..convert..Infallible$GT$$GT$$GT$13from_residual17h03333a3716b531f2E","ax",@progbits
	.p2align	4, 0x90
	.type	_ZN145_$LT$core..option..Option$LT$T$GT$$u20$as$u20$core..ops..try_trait..FromResidual$LT$core..option..Option$LT$core..convert..Infallible$GT$$GT$$GT$13from_residual17h03333a3716b531f2E,@function
_ZN145_$LT$core..option..Option$LT$T$GT$$u20$as$u20$core..ops..try_trait..FromResidual$LT$core..option..Option$LT$core..convert..Infallible$GT$$GT$$GT$13from_residual17h03333a3716b531f2E:
.Lfunc_begin6:
	.cfi_startproc
	.loc	2 2498 21 prologue_end
	movq	$0, -24(%rsp)
	.loc	2 2500 6
	movq	-24(%rsp), %rax
	movq	-16(%rsp), %rdx
	retq
.Ltmp106:
.Lfunc_end6:
	.size	_ZN145_$LT$core..option..Option$LT$T$GT$$u20$as$u20$core..ops..try_trait..FromResidual$LT$core..option..Option$LT$core..convert..Infallible$GT$$GT$$GT$13from_residual17h03333a3716b531f2E, .Lfunc_end6-_ZN145_$LT$core..option..Option$LT$T$GT$$u20$as$u20$core..ops..try_trait..FromResidual$LT$core..option..Option$LT$core..convert..Infallible$GT$$GT$$GT$13from_residual17h03333a3716b531f2E
	.cfi_endproc

	.section	".text._ZN145_$LT$core..option..Option$LT$T$GT$$u20$as$u20$core..ops..try_trait..FromResidual$LT$core..option..Option$LT$core..convert..Infallible$GT$$GT$$GT$13from_residual17h929ca78d2d2e5ea5E","ax",@progbits
	.p2align	4, 0x90
	.type	_ZN145_$LT$core..option..Option$LT$T$GT$$u20$as$u20$core..ops..try_trait..FromResidual$LT$core..option..Option$LT$core..convert..Infallible$GT$$GT$$GT$13from_residual17h929ca78d2d2e5ea5E,@function
_ZN145_$LT$core..option..Option$LT$T$GT$$u20$as$u20$core..ops..try_trait..FromResidual$LT$core..option..Option$LT$core..convert..Infallible$GT$$GT$$GT$13from_residual17h929ca78d2d2e5ea5E:
.Lfunc_begin7:
	.cfi_startproc
	.loc	2 2498 21 prologue_end
	movq	$0, -24(%rsp)
	.loc	2 2500 6
	movq	-24(%rsp), %rax
	movq	-16(%rsp), %rdx
	retq
.Ltmp107:
.Lfunc_end7:
	.size	_ZN145_$LT$core..option..Option$LT$T$GT$$u20$as$u20$core..ops..try_trait..FromResidual$LT$core..option..Option$LT$core..convert..Infallible$GT$$GT$$GT$13from_residual17h929ca78d2d2e5ea5E, .Lfunc_end7-_ZN145_$LT$core..option..Option$LT$T$GT$$u20$as$u20$core..ops..try_trait..FromResidual$LT$core..option..Option$LT$core..convert..Infallible$GT$$GT$$GT$13from_residual17h929ca78d2d2e5ea5E
	.cfi_endproc

	.section	".text._ZN145_$LT$core..option..Option$LT$T$GT$$u20$as$u20$core..ops..try_trait..FromResidual$LT$core..option..Option$LT$core..convert..Infallible$GT$$GT$$GT$13from_residual17h95c0772411dcbb3aE","ax",@progbits
	.p2align	4, 0x90
	.type	_ZN145_$LT$core..option..Option$LT$T$GT$$u20$as$u20$core..ops..try_trait..FromResidual$LT$core..option..Option$LT$core..convert..Infallible$GT$$GT$$GT$13from_residual17h95c0772411dcbb3aE,@function
_ZN145_$LT$core..option..Option$LT$T$GT$$u20$as$u20$core..ops..try_trait..FromResidual$LT$core..option..Option$LT$core..convert..Infallible$GT$$GT$$GT$13from_residual17h95c0772411dcbb3aE:
.Lfunc_begin8:
	.cfi_startproc
	.loc	2 2498 21 prologue_end
	movl	$0, -12(%rsp)
	.loc	2 2500 6
	movl	-12(%rsp), %eax
	movl	-8(%rsp), %edx
	retq
.Ltmp108:
.Lfunc_end8:
	.size	_ZN145_$LT$core..option..Option$LT$T$GT$$u20$as$u20$core..ops..try_trait..FromResidual$LT$core..option..Option$LT$core..convert..Infallible$GT$$GT$$GT$13from_residual17h95c0772411dcbb3aE, .Lfunc_end8-_ZN145_$LT$core..option..Option$LT$T$GT$$u20$as$u20$core..ops..try_trait..FromResidual$LT$core..option..Option$LT$core..convert..Infallible$GT$$GT$$GT$13from_residual17h95c0772411dcbb3aE
	.cfi_endproc

	.section	".text._ZN174_$LT$$LT$alloc..collections..btree..map..IntoIter$LT$K$C$V$C$A$GT$$u20$as$u20$core..ops..drop..Drop$GT$..drop..DropGuard$LT$K$C$V$C$A$GT$$u20$as$u20$core..ops..drop..Drop$GT$4drop17hccc5e1f5868e8d63E","ax",@progbits
	.p2align	4, 0x90
	.type	_ZN174_$LT$$LT$alloc..collections..btree..map..IntoIter$LT$K$C$V$C$A$GT$$u20$as$u20$core..ops..drop..Drop$GT$..drop..DropGuard$LT$K$C$V$C$A$GT$$u20$as$u20$core..ops..drop..Drop$GT$4drop17hccc5e1f5868e8d63E,@function
_ZN174_$LT$$LT$alloc..collections..btree..map..IntoIter$LT$K$C$V$C$A$GT$$u20$as$u20$core..ops..drop..Drop$GT$..drop..DropGuard$LT$K$C$V$C$A$GT$$u20$as$u20$core..ops..drop..Drop$GT$4drop17hccc5e1f5868e8d63E:
.Lfunc_begin9:
	.loc	18 1669 0
	.cfi_startproc
	subq	$72, %rsp
	.cfi_def_cfa_offset 80
	movq	%rdi, 8(%rsp)
	movq	%rdi, 64(%rsp)
.LBB9_1:
	movq	8(%rsp), %rax
.Ltmp109:
	.loc	18 1672 38 prologue_end
	movq	(%rax), %rsi
	leaq	16(%rsp), %rdi
	callq	_ZN5alloc11collections5btree3map25IntoIter$LT$K$C$V$C$A$GT$10dying_next17h8184d046633e4aabE
	movq	16(%rsp), %rdx
	movl	$1, %eax
	xorl	%ecx, %ecx
	cmpq	$0, %rdx
	cmoveq	%rcx, %rax
	.loc	18 1672 27 is_stmt 0
	cmpq	$1, %rax
	jne	.LBB9_3
	.loc	18 1672 32
	movq	16(%rsp), %rax
	movq	%rax, 40(%rsp)
	movq	24(%rsp), %rax
	movq	%rax, 48(%rsp)
	movq	32(%rsp), %rax
	movq	%rax, 56(%rsp)
	.loc	18 1674 30 is_stmt 1
	leaq	40(%rsp), %rdi
	callq	_ZN5alloc11collections5btree4node173Handle$LT$alloc..collections..btree..node..NodeRef$LT$alloc..collections..btree..node..marker..Dying$C$K$C$V$C$NodeType$GT$$C$alloc..collections..btree..node..marker..KV$GT$12drop_key_val17h3d4a328e6ef2686fE
.Ltmp110:
	.loc	18 1672 17
	jmp	.LBB9_1
.LBB9_3:
	.loc	18 1676 14 epilogue_begin
	addq	$72, %rsp
	.cfi_def_cfa_offset 8
	retq
.Ltmp111:
.Lfunc_end9:
	.size	_ZN174_$LT$$LT$alloc..collections..btree..map..IntoIter$LT$K$C$V$C$A$GT$$u20$as$u20$core..ops..drop..Drop$GT$..drop..DropGuard$LT$K$C$V$C$A$GT$$u20$as$u20$core..ops..drop..Drop$GT$4drop17hccc5e1f5868e8d63E, .Lfunc_end9-_ZN174_$LT$$LT$alloc..collections..btree..map..IntoIter$LT$K$C$V$C$A$GT$$u20$as$u20$core..ops..drop..Drop$GT$..drop..DropGuard$LT$K$C$V$C$A$GT$$u20$as$u20$core..ops..drop..Drop$GT$4drop17hccc5e1f5868e8d63E
	.cfi_endproc

	.section	.text._ZN3std2io5error14repr_bitpacked11decode_repr17h98db915acfd0d1ceE,"ax",@progbits
	.p2align	4, 0x90
	.type	_ZN3std2io5error14repr_bitpacked11decode_repr17h98db915acfd0d1ceE,@function
_ZN3std2io5error14repr_bitpacked11decode_repr17h98db915acfd0d1ceE:
.Lfunc_begin10:
	.file	23 "/rustc/90b35a6239c3d8bdabc530a6a0816f7ff89a0aaf/library/std/src/io/error" "repr_bitpacked.rs"
	.loc	23 252 0
	.cfi_startproc
	.cfi_personality 155, DW.ref.rust_eh_personality
	.cfi_lsda 27, .Lexception0
	subq	$312, %rsp
	.cfi_def_cfa_offset 320
	movq	%rsi, 24(%rsp)
	movq	%rdi, 32(%rsp)
	movq	%rdi, 40(%rsp)
	movq	.L__unnamed_9(%rip), %rdi
	movq	.L__unnamed_9+8(%rip), %rdx
	movq	.L__unnamed_10(%rip), %rcx
	movq	.L__unnamed_10+8(%rip), %rax
	movq	%rsi, 72(%rsp)
.Ltmp119:
	.file	24 "/rustc/90b35a6239c3d8bdabc530a6a0816f7ff89a0aaf/library/core/src/fmt" "rt.rs"
	.loc	24 24 9 prologue_end
	movq	$0, 88(%rsp)
	.loc	24 25 9
	movl	$32, 100(%rsp)
	.loc	24 26 9
	movb	$3, 107(%rsp)
	.loc	24 27 9
	movl	$12, 108(%rsp)
	.loc	24 28 9
	movq	%rdi, 112(%rsp)
	movq	%rdx, 120(%rsp)
	.loc	24 29 9
	movq	%rcx, 128(%rsp)
	movq	%rax, 136(%rsp)
.Ltmp120:
	.loc	17 1290 42
	movq	$1, 152(%rsp)
.Ltmp121:
	.loc	17 1270 37
	movq	$1, 160(%rsp)
.Ltmp122:
	.loc	16 2130 35
	movq	$1, 168(%rsp)
.Ltmp123:
	.loc	16 1955 35
	movq	$0, 176(%rsp)
	.loc	16 1955 41 is_stmt 0
	movq	$1, 184(%rsp)
.Ltmp124:
	.loc	17 505 40 is_stmt 1
	movq	$-1, 192(%rsp)
.Ltmp125:
	.loc	23 256 9
	movb	$1, 71(%rsp)
.Ltmp126:
	.loc	5 329 9
	movq	%rsi, 208(%rsp)
	movq	%rsi, 216(%rsp)
.Ltmp127:
	.loc	17 136 18
	movq	%rsi, 56(%rsp)
.Ltmp128:
	.loc	23 257 11
	movq	56(%rsp), %rax
	andl	$3, %eax
	movq	%rax, 48(%rsp)
	.loc	23 257 5 is_stmt 0
	subq	$3, %rax
	ja	.LBB10_1
	.loc	23 0 5
	movq	48(%rsp), %rax
	leaq	.LJTI10_0(%rip), %rcx
	.loc	23 257 5
	movslq	(%rcx,%rax,4), %rax
	addq	%rcx, %rax
	jmpq	*%rax
.LBB10_1:
.Ltmp116:
	.loc	23 289 13 is_stmt 1
	leaq	.L__unnamed_11(%rip), %rdi
	leaq	.L__unnamed_12(%rip), %rdx
	movq	_ZN4core9panicking5panic17h957f98c65a3b3074E@GOTPCREL(%rip), %rax
	movl	$40, %esi
	callq	*%rax
.Ltmp117:
	jmp	.LBB10_15
.LBB10_2:
	.loc	23 0 13 is_stmt 0
	movq	32(%rsp), %rax
	.loc	23 259 25 is_stmt 1
	movq	56(%rsp), %rcx
	.loc	23 259 24 is_stmt 0
	sarq	$32, %rcx
	movl	%ecx, 224(%rsp)
.Ltmp129:
	.loc	23 260 13 is_stmt 1
	movl	%ecx, 4(%rax)
	movb	$0, (%rax)
.Ltmp130:
	.loc	23 292 1
	jmp	.LBB10_6
.LBB10_3:
.Ltmp131:
	.loc	23 263 29
	movl	60(%rsp), %edi
	movl	%edi, 228(%rsp)
.Ltmp114:
.Ltmp132:
	.loc	23 264 24
	callq	_ZN3std2io5error14repr_bitpacked14kind_from_prim17h9a2e989eab49ef3dE
.Ltmp115:
	movb	%al, 23(%rsp)
	jmp	.LBB10_9
.Ltmp133:
.LBB10_4:
	.loc	23 0 24 is_stmt 0
	movq	32(%rsp), %rax
	movq	24(%rsp), %rcx
.Ltmp134:
	.loc	5 427 18 is_stmt 1
	movq	%rcx, 264(%rsp)
.Ltmp135:
	.loc	23 278 22
	movq	%rcx, 8(%rax)
	movb	$2, (%rax)
.Ltmp136:
	.loc	23 292 1
	jmp	.LBB10_6
.LBB10_5:
	.loc	23 0 1 is_stmt 0
	movq	24(%rsp), %rax
.Ltmp137:
	.loc	17 45 9 is_stmt 1
	movq	%rax, 272(%rsp)
.Ltmp138:
	.loc	17 510 18
	decq	%rax
	movq	%rax, 280(%rsp)
	movq	280(%rsp), %rdi
	movq	%rdi, 288(%rsp)
.Ltmp139:
	.loc	17 84 33
	movq	%rdi, 296(%rsp)
.Ltmp140:
	.loc	17 45 9
	movq	%rdi, 304(%rsp)
.Ltmp141:
	.loc	23 285 31
	movb	$0, 71(%rsp)
.Ltmp112:
	callq	_ZN78_$LT$std..io..error..repr_bitpacked..Repr$u20$as$u20$core..ops..drop..Drop$GT$4drop28_$u7b$$u7b$closure$u7d$$u7d$17h53b044929ea5f791E
.Ltmp113:
	movq	%rax, 8(%rsp)
	jmp	.LBB10_14
.Ltmp142:
.LBB10_6:
	.loc	23 292 1
	jmp	.LBB10_13
.LBB10_7:
	testb	$1, 71(%rsp)
	jne	.LBB10_17
	jmp	.LBB10_16
.LBB10_8:
.Ltmp118:
	.loc	23 0 1 is_stmt 0
	movq	%rax, %rcx
	movl	%edx, %eax
	movq	%rcx, 232(%rsp)
	movl	%eax, 240(%rsp)
	jmp	.LBB10_7
.LBB10_9:
	movb	23(%rsp), %al
.Ltmp143:
	.loc	23 264 24 is_stmt 1
	movb	%al, 70(%rsp)
	.loc	23 264 65 is_stmt 0
	leaq	56(%rsp), %rax
	movq	%rax, 248(%rsp)
.Ltmp144:
	.loc	2 1015 15 is_stmt 1
	movl	$1, %eax
	xorl	%ecx, %ecx
	cmpb	$42, 70(%rsp)
	cmoveq	%rcx, %rax
	.loc	2 1015 9 is_stmt 0
	cmpq	$0, %rax
	jne	.LBB10_11
.Ltmp145:
	.loc	3 77 17 is_stmt 1
	callq	_ZN4core4hint21unreachable_unchecked18precondition_check17h5dfa1f1e1ae9df1dE
	jmp	.LBB10_12
.Ltmp146:
.LBB10_11:
	.loc	3 0 17 is_stmt 0
	movq	32(%rsp), %rax
	.loc	2 1016 18 is_stmt 1
	movb	70(%rsp), %cl
	movb	%cl, 263(%rsp)
.Ltmp147:
	.loc	23 274 13
	movb	%cl, 1(%rax)
	movb	$1, (%rax)
.Ltmp148:
	.loc	23 292 1
	jmp	.LBB10_6
.LBB10_12:
	.file	25 "/home/fekerr/.cargo/registry/src/index.crates.io-6f17d22bba15001f/libc-0.2.169" "build.rs"
	.loc	25 0 0 is_stmt 0
	ud2
.LBB10_13:
	movq	40(%rsp), %rax
	.loc	23 292 2 epilogue_begin
	addq	$312, %rsp
	.cfi_def_cfa_offset 8
	retq
.LBB10_14:
	.cfi_def_cfa_offset 320
	.loc	23 0 2
	movq	32(%rsp), %rax
	movq	8(%rsp), %rcx
.Ltmp149:
	.loc	23 285 13 is_stmt 1
	movq	%rcx, 8(%rax)
	movb	$3, (%rax)
.Ltmp150:
	.loc	23 292 1
	jmp	.LBB10_13
.LBB10_15:
	.loc	23 0 1 is_stmt 0
	ud2
.LBB10_16:
	.loc	23 252 1 is_stmt 1
	movq	232(%rsp), %rdi
	callq	_Unwind_Resume@PLT
.LBB10_17:
	.loc	23 292 1
	jmp	.LBB10_16
.Ltmp151:
.Lfunc_end10:
	.size	_ZN3std2io5error14repr_bitpacked11decode_repr17h98db915acfd0d1ceE, .Lfunc_end10-_ZN3std2io5error14repr_bitpacked11decode_repr17h98db915acfd0d1ceE
	.cfi_endproc
	.section	.rodata._ZN3std2io5error14repr_bitpacked11decode_repr17h98db915acfd0d1ceE,"a",@progbits
	.p2align	2, 0x0
.LJTI10_0:
	.long	.LBB10_4-.LJTI10_0
	.long	.LBB10_5-.LJTI10_0
	.long	.LBB10_2-.LJTI10_0
	.long	.LBB10_3-.LJTI10_0
	.file	26 "/rustc/90b35a6239c3d8bdabc530a6a0816f7ff89a0aaf/library/core/src" "hint.rs"
	.file	27 "/rustc/90b35a6239c3d8bdabc530a6a0816f7ff89a0aaf/library/core/src" "panic.rs"
	.section	.gcc_except_table._ZN3std2io5error14repr_bitpacked11decode_repr17h98db915acfd0d1ceE,"a",@progbits
	.p2align	2, 0x0
GCC_except_table10:
.Lexception0:
	.byte	255
	.byte	255
	.byte	1
	.uleb128 .Lcst_end0-.Lcst_begin0
.Lcst_begin0:
	.uleb128 .Ltmp116-.Lfunc_begin10
	.uleb128 .Ltmp113-.Ltmp116
	.uleb128 .Ltmp118-.Lfunc_begin10
	.byte	0
	.uleb128 .Ltmp113-.Lfunc_begin10
	.uleb128 .Lfunc_end10-.Ltmp113
	.byte	0
	.byte	0
.Lcst_end0:
	.p2align	2, 0x0

	.section	.text._ZN3std2io5error14repr_bitpacked14kind_from_prim17h9a2e989eab49ef3dE,"ax",@progbits
	.p2align	4, 0x90
	.type	_ZN3std2io5error14repr_bitpacked14kind_from_prim17h9a2e989eab49ef3dE,@function
_ZN3std2io5error14repr_bitpacked14kind_from_prim17h9a2e989eab49ef3dE:
.Lfunc_begin11:
	.loc	23 298 0
	.cfi_startproc
	subq	$216, %rsp
	.cfi_def_cfa_offset 224
	movl	%edi, -128(%rsp)
.Ltmp152:
	.loc	23 306 19 prologue_end
	leaq	-128(%rsp), %rax
	movq	%rax, -120(%rsp)
	.loc	23 306 24 is_stmt 0
	cmpl	$0, -128(%rsp)
	jne	.LBB11_2
.Ltmp153:
	.loc	23 306 55
	movb	$0, -121(%rsp)
.Ltmp154:
	.loc	23 306 75
	jmp	.LBB11_3
.LBB11_2:
	.loc	23 306 19
	leaq	-128(%rsp), %rax
	movq	%rax, -112(%rsp)
	.loc	23 306 24
	cmpl	$1, -128(%rsp)
	je	.LBB11_4
	jmp	.LBB11_5
.LBB11_3:
	.loc	23 355 2 is_stmt 1
	movb	-121(%rsp), %al
	.loc	23 355 2 epilogue_begin is_stmt 0
	addq	$216, %rsp
	.cfi_def_cfa_offset 8
	retq
.LBB11_4:
	.cfi_def_cfa_offset 224
.Ltmp155:
	.loc	23 306 55 is_stmt 1
	movb	$1, -121(%rsp)
.Ltmp156:
	.loc	23 306 75 is_stmt 0
	jmp	.LBB11_3
.LBB11_5:
	.loc	23 306 19
	leaq	-128(%rsp), %rax
	movq	%rax, -104(%rsp)
	.loc	23 306 24
	cmpl	$2, -128(%rsp)
	jne	.LBB11_7
.Ltmp157:
	.loc	23 306 55
	movb	$2, -121(%rsp)
.Ltmp158:
	.loc	23 306 75
	jmp	.LBB11_3
.LBB11_7:
	.loc	23 306 19
	leaq	-128(%rsp), %rax
	movq	%rax, -96(%rsp)
	.loc	23 306 24
	cmpl	$3, -128(%rsp)
	jne	.LBB11_9
.Ltmp159:
	.loc	23 306 55
	movb	$3, -121(%rsp)
.Ltmp160:
	.loc	23 306 75
	jmp	.LBB11_3
.LBB11_9:
	.loc	23 306 19
	leaq	-128(%rsp), %rax
	movq	%rax, -88(%rsp)
	.loc	23 306 24
	cmpl	$4, -128(%rsp)
	jne	.LBB11_11
.Ltmp161:
	.loc	23 306 55
	movb	$4, -121(%rsp)
.Ltmp162:
	.loc	23 306 75
	jmp	.LBB11_3
.LBB11_11:
	.loc	23 306 19
	leaq	-128(%rsp), %rax
	movq	%rax, -80(%rsp)
	.loc	23 306 24
	cmpl	$5, -128(%rsp)
	jne	.LBB11_13
.Ltmp163:
	.loc	23 306 55
	movb	$5, -121(%rsp)
.Ltmp164:
	.loc	23 306 75
	jmp	.LBB11_3
.LBB11_13:
	.loc	23 306 19
	leaq	-128(%rsp), %rax
	movq	%rax, -72(%rsp)
	.loc	23 306 24
	cmpl	$6, -128(%rsp)
	jne	.LBB11_15
.Ltmp165:
	.loc	23 306 55
	movb	$6, -121(%rsp)
.Ltmp166:
	.loc	23 306 75
	jmp	.LBB11_3
.LBB11_15:
	.loc	23 306 19
	leaq	-128(%rsp), %rax
	movq	%rax, -64(%rsp)
	.loc	23 306 24
	cmpl	$7, -128(%rsp)
	jne	.LBB11_17
.Ltmp167:
	.loc	23 306 55
	movb	$7, -121(%rsp)
.Ltmp168:
	.loc	23 306 75
	jmp	.LBB11_3
.LBB11_17:
	.loc	23 306 19
	leaq	-128(%rsp), %rax
	movq	%rax, -56(%rsp)
	.loc	23 306 24
	cmpl	$8, -128(%rsp)
	jne	.LBB11_19
.Ltmp169:
	.loc	23 306 55
	movb	$8, -121(%rsp)
.Ltmp170:
	.loc	23 306 75
	jmp	.LBB11_3
.LBB11_19:
	.loc	23 306 19
	leaq	-128(%rsp), %rax
	movq	%rax, -48(%rsp)
	.loc	23 306 24
	cmpl	$9, -128(%rsp)
	jne	.LBB11_21
.Ltmp171:
	.loc	23 306 55
	movb	$9, -121(%rsp)
.Ltmp172:
	.loc	23 306 75
	jmp	.LBB11_3
.LBB11_21:
	.loc	23 306 19
	leaq	-128(%rsp), %rax
	movq	%rax, -40(%rsp)
	.loc	23 306 24
	cmpl	$10, -128(%rsp)
	jne	.LBB11_23
.Ltmp173:
	.loc	23 306 55
	movb	$10, -121(%rsp)
.Ltmp174:
	.loc	23 306 75
	jmp	.LBB11_3
.LBB11_23:
	.loc	23 306 19
	leaq	-128(%rsp), %rax
	movq	%rax, -32(%rsp)
	.loc	23 306 24
	cmpl	$11, -128(%rsp)
	jne	.LBB11_25
.Ltmp175:
	.loc	23 306 55
	movb	$11, -121(%rsp)
.Ltmp176:
	.loc	23 306 75
	jmp	.LBB11_3
.LBB11_25:
	.loc	23 306 19
	leaq	-128(%rsp), %rax
	movq	%rax, -24(%rsp)
	.loc	23 306 24
	cmpl	$12, -128(%rsp)
	jne	.LBB11_27
.Ltmp177:
	.loc	23 306 55
	movb	$12, -121(%rsp)
.Ltmp178:
	.loc	23 306 75
	jmp	.LBB11_3
.LBB11_27:
	.loc	23 306 19
	leaq	-128(%rsp), %rax
	movq	%rax, -16(%rsp)
	.loc	23 306 24
	cmpl	$13, -128(%rsp)
	jne	.LBB11_29
.Ltmp179:
	.loc	23 306 55
	movb	$13, -121(%rsp)
.Ltmp180:
	.loc	23 306 75
	jmp	.LBB11_3
.LBB11_29:
	.loc	23 306 19
	leaq	-128(%rsp), %rax
	movq	%rax, -8(%rsp)
	.loc	23 306 24
	cmpl	$14, -128(%rsp)
	jne	.LBB11_31
.Ltmp181:
	.loc	23 306 55
	movb	$14, -121(%rsp)
.Ltmp182:
	.loc	23 306 75
	jmp	.LBB11_3
.LBB11_31:
	.loc	23 306 19
	leaq	-128(%rsp), %rax
	movq	%rax, (%rsp)
	.loc	23 306 24
	cmpl	$15, -128(%rsp)
	jne	.LBB11_33
.Ltmp183:
	.loc	23 306 55
	movb	$15, -121(%rsp)
.Ltmp184:
	.loc	23 306 75
	jmp	.LBB11_3
.LBB11_33:
	.loc	23 306 19
	leaq	-128(%rsp), %rax
	movq	%rax, 8(%rsp)
	.loc	23 306 24
	cmpl	$16, -128(%rsp)
	jne	.LBB11_35
.Ltmp185:
	.loc	23 306 55
	movb	$16, -121(%rsp)
.Ltmp186:
	.loc	23 306 75
	jmp	.LBB11_3
.LBB11_35:
	.loc	23 306 19
	leaq	-128(%rsp), %rax
	movq	%rax, 16(%rsp)
	.loc	23 306 24
	cmpl	$17, -128(%rsp)
	jne	.LBB11_37
.Ltmp187:
	.loc	23 306 55
	movb	$17, -121(%rsp)
.Ltmp188:
	.loc	23 306 75
	jmp	.LBB11_3
.LBB11_37:
	.loc	23 306 19
	leaq	-128(%rsp), %rax
	movq	%rax, 24(%rsp)
	.loc	23 306 24
	cmpl	$18, -128(%rsp)
	jne	.LBB11_39
.Ltmp189:
	.loc	23 306 55
	movb	$18, -121(%rsp)
.Ltmp190:
	.loc	23 306 75
	jmp	.LBB11_3
.LBB11_39:
	.loc	23 306 19
	leaq	-128(%rsp), %rax
	movq	%rax, 32(%rsp)
	.loc	23 306 24
	cmpl	$19, -128(%rsp)
	jne	.LBB11_41
.Ltmp191:
	.loc	23 306 55
	movb	$19, -121(%rsp)
.Ltmp192:
	.loc	23 306 75
	jmp	.LBB11_3
.LBB11_41:
	.loc	23 306 19
	leaq	-128(%rsp), %rax
	movq	%rax, 40(%rsp)
	.loc	23 306 24
	cmpl	$20, -128(%rsp)
	jne	.LBB11_43
.Ltmp193:
	.loc	23 306 55
	movb	$20, -121(%rsp)
.Ltmp194:
	.loc	23 306 75
	jmp	.LBB11_3
.LBB11_43:
	.loc	23 306 19
	leaq	-128(%rsp), %rax
	movq	%rax, 48(%rsp)
	.loc	23 306 24
	cmpl	$21, -128(%rsp)
	jne	.LBB11_45
.Ltmp195:
	.loc	23 306 55
	movb	$21, -121(%rsp)
.Ltmp196:
	.loc	23 306 75
	jmp	.LBB11_3
.LBB11_45:
	.loc	23 306 19
	leaq	-128(%rsp), %rax
	movq	%rax, 56(%rsp)
	.loc	23 306 24
	cmpl	$22, -128(%rsp)
	jne	.LBB11_47
.Ltmp197:
	.loc	23 306 55
	movb	$22, -121(%rsp)
.Ltmp198:
	.loc	23 306 75
	jmp	.LBB11_3
.LBB11_47:
	.loc	23 306 19
	leaq	-128(%rsp), %rax
	movq	%rax, 64(%rsp)
	.loc	23 306 24
	cmpl	$23, -128(%rsp)
	jne	.LBB11_49
.Ltmp199:
	.loc	23 306 55
	movb	$23, -121(%rsp)
.Ltmp200:
	.loc	23 306 75
	jmp	.LBB11_3
.LBB11_49:
	.loc	23 306 19
	leaq	-128(%rsp), %rax
	movq	%rax, 72(%rsp)
	.loc	23 306 24
	cmpl	$24, -128(%rsp)
	jne	.LBB11_51
.Ltmp201:
	.loc	23 306 55
	movb	$24, -121(%rsp)
.Ltmp202:
	.loc	23 306 75
	jmp	.LBB11_3
.LBB11_51:
	.loc	23 306 19
	leaq	-128(%rsp), %rax
	movq	%rax, 80(%rsp)
	.loc	23 306 24
	cmpl	$25, -128(%rsp)
	jne	.LBB11_53
.Ltmp203:
	.loc	23 306 55
	movb	$25, -121(%rsp)
.Ltmp204:
	.loc	23 306 75
	jmp	.LBB11_3
.LBB11_53:
	.loc	23 306 19
	leaq	-128(%rsp), %rax
	movq	%rax, 88(%rsp)
	.loc	23 306 24
	cmpl	$26, -128(%rsp)
	jne	.LBB11_55
.Ltmp205:
	.loc	23 306 55
	movb	$26, -121(%rsp)
.Ltmp206:
	.loc	23 306 75
	jmp	.LBB11_3
.LBB11_55:
	.loc	23 306 19
	leaq	-128(%rsp), %rax
	movq	%rax, 96(%rsp)
	.loc	23 306 24
	cmpl	$27, -128(%rsp)
	jne	.LBB11_57
.Ltmp207:
	.loc	23 306 55
	movb	$27, -121(%rsp)
.Ltmp208:
	.loc	23 306 75
	jmp	.LBB11_3
.LBB11_57:
	.loc	23 306 19
	leaq	-128(%rsp), %rax
	movq	%rax, 104(%rsp)
	.loc	23 306 24
	cmpl	$28, -128(%rsp)
	jne	.LBB11_59
.Ltmp209:
	.loc	23 306 55
	movb	$28, -121(%rsp)
.Ltmp210:
	.loc	23 306 75
	jmp	.LBB11_3
.LBB11_59:
	.loc	23 306 19
	leaq	-128(%rsp), %rax
	movq	%rax, 112(%rsp)
	.loc	23 306 24
	cmpl	$29, -128(%rsp)
	jne	.LBB11_61
.Ltmp211:
	.loc	23 306 55
	movb	$29, -121(%rsp)
.Ltmp212:
	.loc	23 306 75
	jmp	.LBB11_3
.LBB11_61:
	.loc	23 306 19
	leaq	-128(%rsp), %rax
	movq	%rax, 120(%rsp)
	.loc	23 306 24
	cmpl	$30, -128(%rsp)
	jne	.LBB11_63
.Ltmp213:
	.loc	23 306 55
	movb	$30, -121(%rsp)
.Ltmp214:
	.loc	23 306 75
	jmp	.LBB11_3
.LBB11_63:
	.loc	23 306 19
	leaq	-128(%rsp), %rax
	movq	%rax, 128(%rsp)
	.loc	23 306 24
	cmpl	$31, -128(%rsp)
	jne	.LBB11_65
.Ltmp215:
	.loc	23 306 55
	movb	$31, -121(%rsp)
.Ltmp216:
	.loc	23 306 75
	jmp	.LBB11_3
.LBB11_65:
	.loc	23 306 19
	leaq	-128(%rsp), %rax
	movq	%rax, 136(%rsp)
	.loc	23 306 24
	cmpl	$32, -128(%rsp)
	jne	.LBB11_67
.Ltmp217:
	.loc	23 306 55
	movb	$32, -121(%rsp)
.Ltmp218:
	.loc	23 306 75
	jmp	.LBB11_3
.LBB11_67:
	.loc	23 306 19
	leaq	-128(%rsp), %rax
	movq	%rax, 144(%rsp)
	.loc	23 306 24
	cmpl	$33, -128(%rsp)
	jne	.LBB11_69
.Ltmp219:
	.loc	23 306 55
	movb	$33, -121(%rsp)
.Ltmp220:
	.loc	23 306 75
	jmp	.LBB11_3
.LBB11_69:
	.loc	23 306 19
	leaq	-128(%rsp), %rax
	movq	%rax, 152(%rsp)
	.loc	23 306 24
	cmpl	$34, -128(%rsp)
	jne	.LBB11_71
.Ltmp221:
	.loc	23 306 55
	movb	$34, -121(%rsp)
.Ltmp222:
	.loc	23 306 75
	jmp	.LBB11_3
.LBB11_71:
	.loc	23 306 19
	leaq	-128(%rsp), %rax
	movq	%rax, 160(%rsp)
	.loc	23 306 24
	cmpl	$35, -128(%rsp)
	jne	.LBB11_73
.Ltmp223:
	.loc	23 306 55
	movb	$35, -121(%rsp)
.Ltmp224:
	.loc	23 306 75
	jmp	.LBB11_3
.LBB11_73:
	.loc	23 306 19
	leaq	-128(%rsp), %rax
	movq	%rax, 168(%rsp)
	.loc	23 306 24
	cmpl	$40, -128(%rsp)
	jne	.LBB11_75
.Ltmp225:
	.loc	23 306 55
	movb	$40, -121(%rsp)
.Ltmp226:
	.loc	23 306 75
	jmp	.LBB11_3
.LBB11_75:
	.loc	23 306 19
	leaq	-128(%rsp), %rax
	movq	%rax, 176(%rsp)
	.loc	23 306 24
	cmpl	$37, -128(%rsp)
	jne	.LBB11_77
.Ltmp227:
	.loc	23 306 55
	movb	$37, -121(%rsp)
.Ltmp228:
	.loc	23 306 75
	jmp	.LBB11_3
.LBB11_77:
	.loc	23 306 19
	leaq	-128(%rsp), %rax
	movq	%rax, 184(%rsp)
	.loc	23 306 24
	cmpl	$36, -128(%rsp)
	jne	.LBB11_79
.Ltmp229:
	.loc	23 306 55
	movb	$36, -121(%rsp)
.Ltmp230:
	.loc	23 306 75
	jmp	.LBB11_3
.LBB11_79:
	.loc	23 306 19
	leaq	-128(%rsp), %rax
	movq	%rax, 192(%rsp)
	.loc	23 306 24
	cmpl	$38, -128(%rsp)
	jne	.LBB11_81
.Ltmp231:
	.loc	23 306 55
	movb	$38, -121(%rsp)
.Ltmp232:
	.loc	23 306 75
	jmp	.LBB11_3
.LBB11_81:
	.loc	23 306 19
	leaq	-128(%rsp), %rax
	movq	%rax, 200(%rsp)
	.loc	23 306 24
	cmpl	$39, -128(%rsp)
	jne	.LBB11_83
.Ltmp233:
	.loc	23 306 55
	movb	$39, -121(%rsp)
.Ltmp234:
	.loc	23 306 75
	jmp	.LBB11_3
.LBB11_83:
	.loc	23 306 19
	leaq	-128(%rsp), %rax
	movq	%rax, 208(%rsp)
	.loc	23 306 24
	cmpl	$41, -128(%rsp)
	jne	.LBB11_85
.Ltmp235:
	.loc	23 306 55
	movb	$41, -121(%rsp)
.Ltmp236:
	.loc	23 306 75
	jmp	.LBB11_3
.LBB11_85:
	.loc	23 307 22 is_stmt 1
	movb	$42, -121(%rsp)
	jmp	.LBB11_3
.Ltmp237:
.Lfunc_end11:
	.size	_ZN3std2io5error14repr_bitpacked14kind_from_prim17h9a2e989eab49ef3dE, .Lfunc_end11-_ZN3std2io5error14repr_bitpacked14kind_from_prim17h9a2e989eab49ef3dE
	.cfi_endproc

	.section	.text._ZN3std2rt10lang_start17h6b88d4c40fc87876E,"ax",@progbits
	.hidden	_ZN3std2rt10lang_start17h6b88d4c40fc87876E
	.globl	_ZN3std2rt10lang_start17h6b88d4c40fc87876E
	.p2align	4, 0x90
	.type	_ZN3std2rt10lang_start17h6b88d4c40fc87876E,@function
_ZN3std2rt10lang_start17h6b88d4c40fc87876E:
.Lfunc_begin12:
	.file	28 "/rustc/90b35a6239c3d8bdabc530a6a0816f7ff89a0aaf/library/std/src" "rt.rs"
	.loc	28 188 0
	.cfi_startproc
	subq	$56, %rsp
	.cfi_def_cfa_offset 64
	movl	%ecx, %eax
	movq	%rdx, %rcx
	movq	%rsi, %rdx
	movq	%rdi, 16(%rsp)
	movq	%rdx, 24(%rsp)
	movq	%rcx, 32(%rsp)
	movb	%al, 47(%rsp)
.Ltmp238:
	.loc	28 195 10 prologue_end
	movq	%rdi, 8(%rsp)
	.loc	28 194 17
	leaq	8(%rsp), %rdi
	leaq	.L__unnamed_1(%rip), %rsi
	movzbl	%al, %r8d
	callq	*_ZN3std2rt19lang_start_internal17h1c66660c99c8424cE@GOTPCREL(%rip)
	movq	%rax, (%rsp)
	.loc	28 194 12 is_stmt 0
	movq	(%rsp), %rax
	movq	%rax, 48(%rsp)
	.loc	28 201 2 epilogue_begin is_stmt 1
	addq	$56, %rsp
	.cfi_def_cfa_offset 8
	retq
.Ltmp239:
.Lfunc_end12:
	.size	_ZN3std2rt10lang_start17h6b88d4c40fc87876E, .Lfunc_end12-_ZN3std2rt10lang_start17h6b88d4c40fc87876E
	.cfi_endproc

	.section	".text._ZN3std2rt10lang_start28_$u7b$$u7b$closure$u7d$$u7d$17h3fb5031cb72365cdE","ax",@progbits
	.p2align	4, 0x90
	.type	_ZN3std2rt10lang_start28_$u7b$$u7b$closure$u7d$$u7d$17h3fb5031cb72365cdE,@function
_ZN3std2rt10lang_start28_$u7b$$u7b$closure$u7d$$u7d$17h3fb5031cb72365cdE:
.Lfunc_begin13:
	.loc	28 195 0
	.cfi_startproc
	subq	$24, %rsp
	.cfi_def_cfa_offset 32
	movq	%rdi, 8(%rsp)
.Ltmp240:
	.loc	28 195 70 prologue_end
	movq	(%rdi), %rdi
	.loc	28 195 18 is_stmt 0
	callq	_ZN3std3sys9backtrace28__rust_begin_short_backtrace17hb9c4fb923b2ffec2E
	callq	_ZN54_$LT$$LP$$RP$$u20$as$u20$std..process..Termination$GT$6report17h17f14d5d18c5471bE
	movb	%al, 7(%rsp)
.Ltmp241:
	.file	29 "/rustc/90b35a6239c3d8bdabc530a6a0816f7ff89a0aaf/library/std/src" "process.rs"
	.loc	29 2053 9 is_stmt 1
	leaq	7(%rsp), %rax
	movq	%rax, 16(%rsp)
.Ltmp242:
	.file	30 "/rustc/90b35a6239c3d8bdabc530a6a0816f7ff89a0aaf/library/std/src/sys/pal/unix/process" "process_common.rs"
	.loc	30 636 9
	movzbl	7(%rsp), %eax
.Ltmp243:
	.loc	28 195 93 epilogue_begin
	addq	$24, %rsp
	.cfi_def_cfa_offset 8
	retq
.Ltmp244:
.Lfunc_end13:
	.size	_ZN3std2rt10lang_start28_$u7b$$u7b$closure$u7d$$u7d$17h3fb5031cb72365cdE, .Lfunc_end13-_ZN3std2rt10lang_start28_$u7b$$u7b$closure$u7d$$u7d$17h3fb5031cb72365cdE
	.cfi_endproc

	.section	.text._ZN3std3env3var17h3bc2cc1cde8d48aaE,"ax",@progbits
	.p2align	4, 0x90
	.type	_ZN3std3env3var17h3bc2cc1cde8d48aaE,@function
_ZN3std3env3var17h3bc2cc1cde8d48aaE:
.Lfunc_begin14:
	.file	31 "/rustc/90b35a6239c3d8bdabc530a6a0816f7ff89a0aaf/library/std/src" "env.rs"
	.loc	31 220 0
	.cfi_startproc
	.cfi_personality 155, DW.ref.rust_eh_personality
	.cfi_lsda 27, .Lexception1
	subq	$72, %rsp
	.cfi_def_cfa_offset 80
	movq	%rdi, 8(%rsp)
	movq	%rdi, 16(%rsp)
	movq	%rsi, 40(%rsp)
	movq	%rdx, 48(%rsp)
.Ltmp245:
	leaq	40(%rsp), %rdi
.Ltmp250:
	.loc	31 221 10 prologue_end
	callq	_ZN55_$LT$$RF$T$u20$as$u20$core..convert..AsRef$LT$U$GT$$GT$6as_ref17h6008757a50482420E
.Ltmp246:
	movq	%rdx, 24(%rsp)
	movq	%rax, 32(%rsp)
	jmp	.LBB14_3
.LBB14_1:
	.loc	31 220 1
	movq	56(%rsp), %rdi
	callq	_Unwind_Resume@PLT
.LBB14_2:
.Ltmp249:
	.loc	31 0 1 is_stmt 0
	movq	%rax, %rcx
	movl	%edx, %eax
	movq	%rcx, 56(%rsp)
	movl	%eax, 64(%rsp)
	jmp	.LBB14_1
.LBB14_3:
.Ltmp247:
	movq	24(%rsp), %rdx
	movq	32(%rsp), %rsi
	movq	8(%rsp), %rdi
	.loc	31 221 5 is_stmt 1
	movq	_ZN3std3env4_var17h64da317a98d78579E@GOTPCREL(%rip), %rax
	callq	*%rax
.Ltmp248:
	jmp	.LBB14_4
.LBB14_4:
	.loc	31 0 5 is_stmt 0
	movq	16(%rsp), %rax
	.loc	31 222 2 epilogue_begin is_stmt 1
	addq	$72, %rsp
	.cfi_def_cfa_offset 8
	retq
.Ltmp251:
.Lfunc_end14:
	.size	_ZN3std3env3var17h3bc2cc1cde8d48aaE, .Lfunc_end14-_ZN3std3env3var17h3bc2cc1cde8d48aaE
	.cfi_endproc
	.section	.gcc_except_table._ZN3std3env3var17h3bc2cc1cde8d48aaE,"a",@progbits
	.p2align	2, 0x0
GCC_except_table14:
.Lexception1:
	.byte	255
	.byte	255
	.byte	1
	.uleb128 .Lcst_end1-.Lcst_begin1
.Lcst_begin1:
	.uleb128 .Ltmp245-.Lfunc_begin14
	.uleb128 .Ltmp246-.Ltmp245
	.uleb128 .Ltmp249-.Lfunc_begin14
	.byte	0
	.uleb128 .Ltmp246-.Lfunc_begin14
	.uleb128 .Ltmp247-.Ltmp246
	.byte	0
	.byte	0
	.uleb128 .Ltmp247-.Lfunc_begin14
	.uleb128 .Ltmp248-.Ltmp247
	.uleb128 .Ltmp249-.Lfunc_begin14
	.byte	0
.Lcst_end1:
	.p2align	2, 0x0

	.section	.text._ZN3std3env6var_os17h15c59e57ead56f17E,"ax",@progbits
	.p2align	4, 0x90
	.type	_ZN3std3env6var_os17h15c59e57ead56f17E,@function
_ZN3std3env6var_os17h15c59e57ead56f17E:
.Lfunc_begin15:
	.loc	31 257 0
	.cfi_startproc
	.cfi_personality 155, DW.ref.rust_eh_personality
	.cfi_lsda 27, .Lexception2
	subq	$72, %rsp
	.cfi_def_cfa_offset 80
	movq	%rdi, 8(%rsp)
	movq	%rdi, 16(%rsp)
	movq	%rsi, 40(%rsp)
	movq	%rdx, 48(%rsp)
.Ltmp252:
	leaq	40(%rsp), %rdi
.Ltmp257:
	.loc	31 258 13 prologue_end
	callq	_ZN55_$LT$$RF$T$u20$as$u20$core..convert..AsRef$LT$U$GT$$GT$6as_ref17h6008757a50482420E
.Ltmp253:
	movq	%rdx, 24(%rsp)
	movq	%rax, 32(%rsp)
	jmp	.LBB15_3
.LBB15_1:
	.loc	31 257 1
	movq	56(%rsp), %rdi
	callq	_Unwind_Resume@PLT
.LBB15_2:
.Ltmp256:
	.loc	31 0 1 is_stmt 0
	movq	%rax, %rcx
	movl	%edx, %eax
	movq	%rcx, 56(%rsp)
	movl	%eax, 64(%rsp)
	jmp	.LBB15_1
.LBB15_3:
.Ltmp254:
	movq	24(%rsp), %rdx
	movq	32(%rsp), %rsi
	movq	8(%rsp), %rdi
	.loc	31 258 5 is_stmt 1
	movq	_ZN3std3env7_var_os17h80a837a7a81294e3E@GOTPCREL(%rip), %rax
	callq	*%rax
.Ltmp255:
	jmp	.LBB15_4
.LBB15_4:
	.loc	31 0 5 is_stmt 0
	movq	16(%rsp), %rax
	.loc	31 259 2 epilogue_begin is_stmt 1
	addq	$72, %rsp
	.cfi_def_cfa_offset 8
	retq
.Ltmp258:
.Lfunc_end15:
	.size	_ZN3std3env6var_os17h15c59e57ead56f17E, .Lfunc_end15-_ZN3std3env6var_os17h15c59e57ead56f17E
	.cfi_endproc
	.section	.gcc_except_table._ZN3std3env6var_os17h15c59e57ead56f17E,"a",@progbits
	.p2align	2, 0x0
GCC_except_table15:
.Lexception2:
	.byte	255
	.byte	255
	.byte	1
	.uleb128 .Lcst_end2-.Lcst_begin2
.Lcst_begin2:
	.uleb128 .Ltmp252-.Lfunc_begin15
	.uleb128 .Ltmp253-.Ltmp252
	.uleb128 .Ltmp256-.Lfunc_begin15
	.byte	0
	.uleb128 .Ltmp253-.Lfunc_begin15
	.uleb128 .Ltmp254-.Ltmp253
	.byte	0
	.byte	0
	.uleb128 .Ltmp254-.Lfunc_begin15
	.uleb128 .Ltmp255-.Ltmp254
	.uleb128 .Ltmp256-.Lfunc_begin15
	.byte	0
.Lcst_end2:
	.p2align	2, 0x0

	.section	.text._ZN3std3ffi6os_str5OsStr8is_empty17h9ec8a391349d00b4E,"ax",@progbits
	.p2align	4, 0x90
	.type	_ZN3std3ffi6os_str5OsStr8is_empty17h9ec8a391349d00b4E,@function
_ZN3std3ffi6os_str5OsStr8is_empty17h9ec8a391349d00b4E:
.Lfunc_begin16:
	.loc	11 942 0
	.cfi_startproc
	movq	%rdi, -32(%rsp)
	movq	%rsi, -24(%rsp)
.Ltmp259:
	.loc	11 943 9 prologue_end
	movq	%rdi, -16(%rsp)
	movq	%rsi, -8(%rsp)
.Ltmp260:
	.file	32 "/rustc/90b35a6239c3d8bdabc530a6a0816f7ff89a0aaf/library/core/src/slice" "mod.rs"
	.loc	32 136 9
	cmpq	$0, %rsi
	sete	%al
.Ltmp261:
	.loc	11 944 6
	andb	$1, %al
	retq
.Ltmp262:
.Lfunc_end16:
	.size	_ZN3std3ffi6os_str5OsStr8is_empty17h9ec8a391349d00b4E, .Lfunc_end16-_ZN3std3ffi6os_str5OsStr8is_empty17h9ec8a391349d00b4E
	.cfi_endproc

	.section	".text._ZN3std3ffi6os_str85_$LT$impl$u20$core..convert..AsRef$LT$std..ffi..os_str..OsStr$GT$$u20$for$u20$str$GT$6as_ref17h43df88ab415f335eE","ax",@progbits
	.p2align	4, 0x90
	.type	_ZN3std3ffi6os_str85_$LT$impl$u20$core..convert..AsRef$LT$std..ffi..os_str..OsStr$GT$$u20$for$u20$str$GT$6as_ref17h43df88ab415f335eE,@function
_ZN3std3ffi6os_str85_$LT$impl$u20$core..convert..AsRef$LT$std..ffi..os_str..OsStr$GT$$u20$for$u20$str$GT$6as_ref17h43df88ab415f335eE:
.Lfunc_begin17:
	.loc	11 1616 0
	.cfi_startproc
	movq	%rsi, %rdx
	movq	%rdi, %rax
	movq	%rax, -48(%rsp)
	movq	%rdx, -40(%rsp)
.Ltmp263:
	.file	33 "/rustc/90b35a6239c3d8bdabc530a6a0816f7ff89a0aaf/library/core/src/str" "mod.rs"
	.loc	33 302 18 prologue_end
	movq	%rax, -32(%rsp)
	movq	%rdx, -24(%rsp)
.Ltmp264:
	.loc	12 230 18
	movq	%rax, -16(%rsp)
	movq	%rdx, -8(%rsp)
.Ltmp265:
	.loc	11 1618 6
	retq
.Ltmp266:
.Lfunc_end17:
	.size	_ZN3std3ffi6os_str85_$LT$impl$u20$core..convert..AsRef$LT$std..ffi..os_str..OsStr$GT$$u20$for$u20$str$GT$6as_ref17h43df88ab415f335eE, .Lfunc_end17-_ZN3std3ffi6os_str85_$LT$impl$u20$core..convert..AsRef$LT$std..ffi..os_str..OsStr$GT$$u20$for$u20$str$GT$6as_ref17h43df88ab415f335eE
	.cfi_endproc

	.section	.text._ZN3std3sys3pal4unix2fs23debug_assert_fd_is_open17hc639597b83c7c536E,"ax",@progbits
	.p2align	4, 0x90
	.type	_ZN3std3sys3pal4unix2fs23debug_assert_fd_is_open17hc639597b83c7c536E,@function
_ZN3std3sys3pal4unix2fs23debug_assert_fd_is_open17hc639597b83c7c536E:
.Lfunc_begin18:
	.file	34 "/rustc/90b35a6239c3d8bdabc530a6a0816f7ff89a0aaf/library/std/src/sys/pal/unix" "fs.rs"
	.loc	34 846 0
	.cfi_startproc
	movl	%edi, -16(%rsp)
.Ltmp267:
	.file	35 "/rustc/90b35a6239c3d8bdabc530a6a0816f7ff89a0aaf/library/core/src/fmt" "mod.rs"
	.loc	35 346 9 prologue_end
	leaq	.L__unnamed_13(%rip), %rax
	movq	%rax, -8(%rsp)
.Ltmp268:
	.loc	34 855 2
	retq
.Ltmp269:
.Lfunc_end18:
	.size	_ZN3std3sys3pal4unix2fs23debug_assert_fd_is_open17hc639597b83c7c536E, .Lfunc_end18-_ZN3std3sys3pal4unix2fs23debug_assert_fd_is_open17hc639597b83c7c536E
	.cfi_endproc

	.section	.text._ZN3std3sys9backtrace28__rust_begin_short_backtrace17hb9c4fb923b2ffec2E,"ax",@progbits
	.p2align	4, 0x90
	.type	_ZN3std3sys9backtrace28__rust_begin_short_backtrace17hb9c4fb923b2ffec2E,@function
_ZN3std3sys9backtrace28__rust_begin_short_backtrace17hb9c4fb923b2ffec2E:
.Lfunc_begin19:
	.file	36 "/rustc/90b35a6239c3d8bdabc530a6a0816f7ff89a0aaf/library/std/src/sys" "backtrace.rs"
	.loc	36 150 0
	.cfi_startproc
	subq	$24, %rsp
	.cfi_def_cfa_offset 32
	movq	%rdi, 8(%rsp)
.Ltmp270:
	.loc	36 154 18 prologue_end
	callq	_ZN4core3ops8function6FnOnce9call_once17h0c7a904339fe6bc8E
.Ltmp271:
	.loc	26 389 5
	#APP
	#NO_APP
.Ltmp272:
	.loc	36 160 2 epilogue_begin
	addq	$24, %rsp
	.cfi_def_cfa_offset 8
	retq
.Ltmp273:
.Lfunc_end19:
	.size	_ZN3std3sys9backtrace28__rust_begin_short_backtrace17hb9c4fb923b2ffec2E, .Lfunc_end19-_ZN3std3sys9backtrace28__rust_begin_short_backtrace17hb9c4fb923b2ffec2E
	.cfi_endproc

	.section	.text._ZN3std7process10ExitStatus7success17h3ac790dbe4816918E,"ax",@progbits
	.p2align	4, 0x90
	.type	_ZN3std7process10ExitStatus7success17h3ac790dbe4816918E,@function
_ZN3std7process10ExitStatus7success17h3ac790dbe4816918E:
.Lfunc_begin20:
	.loc	29 1743 0
	.cfi_startproc
	movq	%rdi, -40(%rsp)
.Ltmp274:
	.loc	29 1744 9 prologue_end
	movq	%rdi, -24(%rsp)
.Ltmp275:
	.file	37 "/rustc/90b35a6239c3d8bdabc530a6a0816f7ff89a0aaf/library/std/src/sys/pal/unix/process" "process_unix.rs"
	.loc	37 1012 33
	movl	(%rdi), %eax
	movl	%eax, -16(%rsp)
.Ltmp276:
	.file	38 "/rustc/90b35a6239c3d8bdabc530a6a0816f7ff89a0aaf/library/core/src/num" "nonzero.rs"
	.loc	38 354 18
	movl	%eax, -44(%rsp)
.Ltmp277:
	.loc	2 1247 15
	movl	$1, %eax
	xorl	%ecx, %ecx
	cmpl	$0, -44(%rsp)
	cmoveq	%rcx, %rax
	.loc	2 1247 9 is_stmt 0
	cmpq	$0, %rax
	jne	.LBB20_2
.Ltmp278:
	.loc	37 1014 56 is_stmt 1
	movl	$0, -48(%rsp)
	.loc	37 1014 61 is_stmt 0
	jmp	.LBB20_3
.LBB20_2:
.Ltmp279:
	.loc	2 1248 18 is_stmt 1
	movl	-44(%rsp), %eax
	movl	%eax, -12(%rsp)
.Ltmp280:
	.loc	37 1013 46
	movl	%eax, -48(%rsp)
.Ltmp281:
.LBB20_3:
	.loc	29 1744 9
	leaq	-48(%rsp), %rax
	movq	%rax, -8(%rsp)
.Ltmp282:
	.file	39 "/rustc/90b35a6239c3d8bdabc530a6a0816f7ff89a0aaf/library/core/src" "result.rs"
	.loc	39 564 18
	movl	$1, %eax
	xorl	%ecx, %ecx
	cmpl	$0, -48(%rsp)
	cmoveq	%rcx, %rax
	.file	40 "/rustc/90b35a6239c3d8bdabc530a6a0816f7ff89a0aaf/library/core/src/macros" "mod.rs"
	.loc	40 475 9
	cmpq	$0, %rax
	jne	.LBB20_5
	.loc	40 476 39
	movb	$1, -49(%rsp)
	jmp	.LBB20_6
.LBB20_5:
	.loc	40 477 18
	movb	$0, -49(%rsp)
.Ltmp283:
.LBB20_6:
	.loc	29 1745 6
	movb	-49(%rsp), %al
	andb	$1, %al
	retq
.Ltmp284:
.Lfunc_end20:
	.size	_ZN3std7process10ExitStatus7success17h3ac790dbe4816918E, .Lfunc_end20-_ZN3std7process10ExitStatus7success17h3ac790dbe4816918E
	.cfi_endproc
	.file	41 "/rustc/90b35a6239c3d8bdabc530a6a0816f7ff89a0aaf/library/core/src/convert" "num.rs"

	.section	.text._ZN3std7process7Command3arg17h26db7d846a2594c8E,"ax",@progbits
	.p2align	4, 0x90
	.type	_ZN3std7process7Command3arg17h26db7d846a2594c8E,@function
_ZN3std7process7Command3arg17h26db7d846a2594c8E:
.Lfunc_begin21:
	.loc	29 718 0
	.cfi_startproc
	.cfi_personality 155, DW.ref.rust_eh_personality
	.cfi_lsda 27, .Lexception3
	subq	$72, %rsp
	.cfi_def_cfa_offset 80
	movq	%rsi, 8(%rsp)
	movq	%rdi, %rax
	movq	8(%rsp), %rdi
	movq	%rax, 16(%rsp)
	movq	%rdi, 24(%rsp)
.Ltmp293:
	movq	%rax, 48(%rsp)
.Ltmp285:
.Ltmp294:
	.loc	29 719 24 prologue_end
	callq	_ZN98_$LT$std..ffi..os_str..OsString$u20$as$u20$core..convert..AsRef$LT$std..ffi..os_str..OsStr$GT$$GT$6as_ref17h7653a0b9eb6f55e3E
.Ltmp295:
.Ltmp286:
	.loc	29 0 24 is_stmt 0
	movq	%rdx, 32(%rsp)
	movq	%rax, 40(%rsp)
.Ltmp296:
	.loc	29 719 24
	jmp	.LBB21_3
.Ltmp297:
.LBB21_1:
.Ltmp290:
	.loc	29 0 24
	movq	24(%rsp), %rdi
	.loc	29 721 5 is_stmt 1
	callq	_ZN4core3ptr47drop_in_place$LT$std..ffi..os_str..OsString$GT$17hb0a52be10d38c602E
.Ltmp291:
	jmp	.LBB21_6
.Ltmp298:
.LBB21_2:
.Ltmp289:
	.loc	29 0 5 is_stmt 0
	movq	%rax, %rcx
	movl	%edx, %eax
	movq	%rcx, 56(%rsp)
	movl	%eax, 64(%rsp)
	jmp	.LBB21_1
.Ltmp299:
.LBB21_3:
.Ltmp287:
	movq	32(%rsp), %rdx
	movq	40(%rsp), %rsi
	movq	16(%rsp), %rdi
	.loc	29 719 9 is_stmt 1
	movq	_ZN3std3sys3pal4unix7process14process_common7Command3arg17h987c6542864b4154E@GOTPCREL(%rip), %rax
	callq	*%rax
.Ltmp288:
	jmp	.LBB21_4
.Ltmp300:
.LBB21_4:
	.loc	29 0 9 is_stmt 0
	movq	24(%rsp), %rdi
	.loc	29 721 5 is_stmt 1
	callq	_ZN4core3ptr47drop_in_place$LT$std..ffi..os_str..OsString$GT$17hb0a52be10d38c602E
	movq	16(%rsp), %rax
	.loc	29 721 6 epilogue_begin is_stmt 0
	addq	$72, %rsp
	.cfi_def_cfa_offset 8
	retq
.Ltmp301:
.LBB21_5:
	.cfi_def_cfa_offset 80
.Ltmp292:
	.loc	29 718 5 is_stmt 1
	movq	_ZN4core9panicking16panic_in_cleanup17hddc1b09eaad4daa3E@GOTPCREL(%rip), %rax
	callq	*%rax
.Ltmp302:
.LBB21_6:
	movq	56(%rsp), %rdi
	callq	_Unwind_Resume@PLT
.Ltmp303:
.Lfunc_end21:
	.size	_ZN3std7process7Command3arg17h26db7d846a2594c8E, .Lfunc_end21-_ZN3std7process7Command3arg17h26db7d846a2594c8E
	.cfi_endproc
	.section	.gcc_except_table._ZN3std7process7Command3arg17h26db7d846a2594c8E,"a",@progbits
	.p2align	2, 0x0
GCC_except_table21:
.Lexception3:
	.byte	255
	.byte	155
	.uleb128 .Lttbase0-.Lttbaseref0
.Lttbaseref0:
	.byte	1
	.uleb128 .Lcst_end3-.Lcst_begin3
.Lcst_begin3:
	.uleb128 .Ltmp285-.Lfunc_begin21
	.uleb128 .Ltmp286-.Ltmp285
	.uleb128 .Ltmp289-.Lfunc_begin21
	.byte	0
	.uleb128 .Ltmp290-.Lfunc_begin21
	.uleb128 .Ltmp291-.Ltmp290
	.uleb128 .Ltmp292-.Lfunc_begin21
	.byte	1
	.uleb128 .Ltmp287-.Lfunc_begin21
	.uleb128 .Ltmp288-.Ltmp287
	.uleb128 .Ltmp289-.Lfunc_begin21
	.byte	0
	.uleb128 .Ltmp288-.Lfunc_begin21
	.uleb128 .Lfunc_end21-.Ltmp288
	.byte	0
	.byte	0
.Lcst_end3:
	.byte	127
	.byte	0
	.p2align	2, 0x0
.Lttbase0:
	.byte	0
	.p2align	2, 0x0

	.section	.text._ZN3std7process7Command3arg17he33a406a23d82f4aE,"ax",@progbits
	.p2align	4, 0x90
	.type	_ZN3std7process7Command3arg17he33a406a23d82f4aE,@function
_ZN3std7process7Command3arg17he33a406a23d82f4aE:
.Lfunc_begin22:
	.loc	29 718 0
	.cfi_startproc
	.cfi_personality 155, DW.ref.rust_eh_personality
	.cfi_lsda 27, .Lexception4
	subq	$72, %rsp
	.cfi_def_cfa_offset 80
	movq	%rdi, 8(%rsp)
	movq	%rsi, 32(%rsp)
	movq	%rdx, 40(%rsp)
	movq	%rdi, 48(%rsp)
.Ltmp304:
	leaq	32(%rsp), %rdi
.Ltmp309:
	.loc	29 719 24 prologue_end
	callq	_ZN55_$LT$$RF$T$u20$as$u20$core..convert..AsRef$LT$U$GT$$GT$6as_ref17h6008757a50482420E
.Ltmp305:
	movq	%rdx, 16(%rsp)
	movq	%rax, 24(%rsp)
	jmp	.LBB22_3
.LBB22_1:
	.loc	29 718 5
	movq	56(%rsp), %rdi
	callq	_Unwind_Resume@PLT
.LBB22_2:
.Ltmp308:
	.loc	29 0 5 is_stmt 0
	movq	%rax, %rcx
	movl	%edx, %eax
	movq	%rcx, 56(%rsp)
	movl	%eax, 64(%rsp)
	jmp	.LBB22_1
.LBB22_3:
.Ltmp306:
	movq	16(%rsp), %rdx
	movq	24(%rsp), %rsi
	movq	8(%rsp), %rdi
	.loc	29 719 9 is_stmt 1
	movq	_ZN3std3sys3pal4unix7process14process_common7Command3arg17h987c6542864b4154E@GOTPCREL(%rip), %rax
	callq	*%rax
.Ltmp307:
	jmp	.LBB22_4
.LBB22_4:
	.loc	29 0 9 is_stmt 0
	movq	8(%rsp), %rax
	.loc	29 721 6 epilogue_begin is_stmt 1
	addq	$72, %rsp
	.cfi_def_cfa_offset 8
	retq
.Ltmp310:
.Lfunc_end22:
	.size	_ZN3std7process7Command3arg17he33a406a23d82f4aE, .Lfunc_end22-_ZN3std7process7Command3arg17he33a406a23d82f4aE
	.cfi_endproc
	.section	.gcc_except_table._ZN3std7process7Command3arg17he33a406a23d82f4aE,"a",@progbits
	.p2align	2, 0x0
GCC_except_table22:
.Lexception4:
	.byte	255
	.byte	255
	.byte	1
	.uleb128 .Lcst_end4-.Lcst_begin4
.Lcst_begin4:
	.uleb128 .Ltmp304-.Lfunc_begin22
	.uleb128 .Ltmp305-.Ltmp304
	.uleb128 .Ltmp308-.Lfunc_begin22
	.byte	0
	.uleb128 .Ltmp305-.Lfunc_begin22
	.uleb128 .Ltmp306-.Ltmp305
	.byte	0
	.byte	0
	.uleb128 .Ltmp306-.Lfunc_begin22
	.uleb128 .Ltmp307-.Ltmp306
	.uleb128 .Ltmp308-.Lfunc_begin22
	.byte	0
.Lcst_end4:
	.p2align	2, 0x0

	.section	.text._ZN3std7process7Command3new17h0ba026b3e79ec8a7E,"ax",@progbits
	.p2align	4, 0x90
	.type	_ZN3std7process7Command3new17h0ba026b3e79ec8a7E,@function
_ZN3std7process7Command3new17h0ba026b3e79ec8a7E:
.Lfunc_begin23:
	.loc	29 655 0
	.cfi_startproc
	.cfi_personality 155, DW.ref.rust_eh_personality
	.cfi_lsda 27, .Lexception5
	subq	$264, %rsp
	.cfi_def_cfa_offset 272
	movq	%rsi, (%rsp)
.Ltmp319:
	movq	%rdi, %rax
	movq	(%rsp), %rdi
	movq	%rax, 8(%rsp)
	movq	%rax, 16(%rsp)
.Ltmp311:
.Ltmp320:
	.loc	29 656 44 prologue_end
	callq	_ZN98_$LT$std..ffi..os_str..OsString$u20$as$u20$core..convert..AsRef$LT$std..ffi..os_str..OsStr$GT$$GT$6as_ref17h7653a0b9eb6f55e3E
.Ltmp312:
	movq	%rdx, 24(%rsp)
	movq	%rax, 32(%rsp)
	jmp	.LBB23_3
.Ltmp321:
.LBB23_1:
.Ltmp316:
	.loc	29 0 44 is_stmt 0
	movq	(%rsp), %rdi
	.loc	29 657 5 is_stmt 1
	callq	_ZN4core3ptr47drop_in_place$LT$std..ffi..os_str..OsString$GT$17hb0a52be10d38c602E
.Ltmp317:
	jmp	.LBB23_6
.Ltmp322:
.LBB23_2:
.Ltmp315:
	.loc	29 0 5 is_stmt 0
	movq	%rax, %rcx
	movl	%edx, %eax
	movq	%rcx, 248(%rsp)
	movl	%eax, 256(%rsp)
	jmp	.LBB23_1
.Ltmp323:
.LBB23_3:
.Ltmp313:
	movq	24(%rsp), %rdx
	movq	32(%rsp), %rsi
	.loc	29 656 26 is_stmt 1
	movq	_ZN3std3sys3pal4unix7process14process_common7Command3new17h724b1dfabbcddce2E@GOTPCREL(%rip), %rax
	leaq	40(%rsp), %rdi
	callq	*%rax
.Ltmp314:
	jmp	.LBB23_4
.Ltmp324:
.LBB23_4:
	.loc	29 0 26 is_stmt 0
	movq	8(%rsp), %rdi
	.loc	29 656 9
	leaq	40(%rsp), %rsi
	movl	$208, %edx
	callq	memcpy@PLT
	movq	(%rsp), %rdi
	.loc	29 657 5 is_stmt 1
	callq	_ZN4core3ptr47drop_in_place$LT$std..ffi..os_str..OsString$GT$17hb0a52be10d38c602E
	movq	16(%rsp), %rax
	.loc	29 657 6 epilogue_begin is_stmt 0
	addq	$264, %rsp
	.cfi_def_cfa_offset 8
	retq
.Ltmp325:
.LBB23_5:
	.cfi_def_cfa_offset 272
.Ltmp318:
	.loc	29 655 5 is_stmt 1
	movq	_ZN4core9panicking16panic_in_cleanup17hddc1b09eaad4daa3E@GOTPCREL(%rip), %rax
	callq	*%rax
.Ltmp326:
.LBB23_6:
	movq	248(%rsp), %rdi
	callq	_Unwind_Resume@PLT
.Ltmp327:
.Lfunc_end23:
	.size	_ZN3std7process7Command3new17h0ba026b3e79ec8a7E, .Lfunc_end23-_ZN3std7process7Command3new17h0ba026b3e79ec8a7E
	.cfi_endproc
	.section	.gcc_except_table._ZN3std7process7Command3new17h0ba026b3e79ec8a7E,"a",@progbits
	.p2align	2, 0x0
GCC_except_table23:
.Lexception5:
	.byte	255
	.byte	155
	.uleb128 .Lttbase1-.Lttbaseref1
.Lttbaseref1:
	.byte	1
	.uleb128 .Lcst_end5-.Lcst_begin5
.Lcst_begin5:
	.uleb128 .Ltmp311-.Lfunc_begin23
	.uleb128 .Ltmp312-.Ltmp311
	.uleb128 .Ltmp315-.Lfunc_begin23
	.byte	0
	.uleb128 .Ltmp316-.Lfunc_begin23
	.uleb128 .Ltmp317-.Ltmp316
	.uleb128 .Ltmp318-.Lfunc_begin23
	.byte	1
	.uleb128 .Ltmp313-.Lfunc_begin23
	.uleb128 .Ltmp314-.Ltmp313
	.uleb128 .Ltmp315-.Lfunc_begin23
	.byte	0
	.uleb128 .Ltmp314-.Lfunc_begin23
	.uleb128 .Lfunc_end23-.Ltmp314
	.byte	0
	.byte	0
.Lcst_end5:
	.byte	127
	.byte	0
	.p2align	2, 0x0
.Lttbase1:
	.byte	0
	.p2align	2, 0x0

	.section	.text._ZN3std7process7Command3new17h67c57d10d240537bE,"ax",@progbits
	.p2align	4, 0x90
	.type	_ZN3std7process7Command3new17h67c57d10d240537bE,@function
_ZN3std7process7Command3new17h67c57d10d240537bE:
.Lfunc_begin24:
	.loc	29 655 0
	.cfi_startproc
	.cfi_personality 155, DW.ref.rust_eh_personality
	.cfi_lsda 27, .Lexception6
	subq	$280, %rsp
	.cfi_def_cfa_offset 288
	movq	%rdi, 8(%rsp)
	movq	%rdi, 16(%rsp)
	movq	%rsi, 40(%rsp)
	movq	%rdx, 48(%rsp)
.Ltmp328:
	leaq	40(%rsp), %rdi
.Ltmp333:
	.loc	29 656 44 prologue_end
	callq	_ZN55_$LT$$RF$T$u20$as$u20$core..convert..AsRef$LT$U$GT$$GT$6as_ref17h6008757a50482420E
.Ltmp329:
	movq	%rdx, 24(%rsp)
	movq	%rax, 32(%rsp)
	jmp	.LBB24_3
.LBB24_1:
	.loc	29 655 5
	movq	264(%rsp), %rdi
	callq	_Unwind_Resume@PLT
.LBB24_2:
.Ltmp332:
	.loc	29 0 5 is_stmt 0
	movq	%rax, %rcx
	movl	%edx, %eax
	movq	%rcx, 264(%rsp)
	movl	%eax, 272(%rsp)
	jmp	.LBB24_1
.LBB24_3:
.Ltmp330:
	movq	24(%rsp), %rdx
	movq	32(%rsp), %rsi
	.loc	29 656 26 is_stmt 1
	movq	_ZN3std3sys3pal4unix7process14process_common7Command3new17h724b1dfabbcddce2E@GOTPCREL(%rip), %rax
	leaq	56(%rsp), %rdi
	callq	*%rax
.Ltmp331:
	jmp	.LBB24_4
.LBB24_4:
	.loc	29 0 26 is_stmt 0
	movq	8(%rsp), %rdi
	.loc	29 656 9
	leaq	56(%rsp), %rsi
	movl	$208, %edx
	callq	memcpy@PLT
	movq	16(%rsp), %rax
	.loc	29 657 6 epilogue_begin is_stmt 1
	addq	$280, %rsp
	.cfi_def_cfa_offset 8
	retq
.Ltmp334:
.Lfunc_end24:
	.size	_ZN3std7process7Command3new17h67c57d10d240537bE, .Lfunc_end24-_ZN3std7process7Command3new17h67c57d10d240537bE
	.cfi_endproc
	.section	.gcc_except_table._ZN3std7process7Command3new17h67c57d10d240537bE,"a",@progbits
	.p2align	2, 0x0
GCC_except_table24:
.Lexception6:
	.byte	255
	.byte	255
	.byte	1
	.uleb128 .Lcst_end6-.Lcst_begin6
.Lcst_begin6:
	.uleb128 .Ltmp328-.Lfunc_begin24
	.uleb128 .Ltmp329-.Ltmp328
	.uleb128 .Ltmp332-.Lfunc_begin24
	.byte	0
	.uleb128 .Ltmp329-.Lfunc_begin24
	.uleb128 .Ltmp330-.Ltmp329
	.byte	0
	.byte	0
	.uleb128 .Ltmp330-.Lfunc_begin24
	.uleb128 .Ltmp331-.Ltmp330
	.uleb128 .Ltmp332-.Lfunc_begin24
	.byte	0
	.uleb128 .Ltmp331-.Lfunc_begin24
	.uleb128 .Lfunc_end24-.Ltmp331
	.byte	0
	.byte	0
.Lcst_end6:
	.p2align	2, 0x0

	.section	".text._ZN42_$LT$$RF$T$u20$as$u20$core..fmt..Debug$GT$3fmt17h88b0e0bbc42f68d6E","ax",@progbits
	.p2align	4, 0x90
	.type	_ZN42_$LT$$RF$T$u20$as$u20$core..fmt..Debug$GT$3fmt17h88b0e0bbc42f68d6E,@function
_ZN42_$LT$$RF$T$u20$as$u20$core..fmt..Debug$GT$3fmt17h88b0e0bbc42f68d6E:
.Lfunc_begin25:
	.loc	35 2390 0
	.cfi_startproc
	subq	$24, %rsp
	.cfi_def_cfa_offset 32
	movq	%rdi, 8(%rsp)
	movq	%rsi, 16(%rsp)
.Ltmp335:
	.loc	35 2390 71 prologue_end
	movq	(%rdi), %rdi
	.loc	35 2390 62 is_stmt 0
	callq	_ZN45_$LT$$LP$$RP$$u20$as$u20$core..fmt..Debug$GT$3fmt17h3a17b5fe2e5c36f1E
	.loc	35 2390 84
	andb	$1, %al
	.loc	35 2390 84 epilogue_begin
	addq	$24, %rsp
	.cfi_def_cfa_offset 8
	retq
.Ltmp336:
.Lfunc_end25:
	.size	_ZN42_$LT$$RF$T$u20$as$u20$core..fmt..Debug$GT$3fmt17h88b0e0bbc42f68d6E, .Lfunc_end25-_ZN42_$LT$$RF$T$u20$as$u20$core..fmt..Debug$GT$3fmt17h88b0e0bbc42f68d6E
	.cfi_endproc

	.section	".text._ZN42_$LT$$RF$T$u20$as$u20$core..fmt..Debug$GT$3fmt17hced9067a7eb0aec9E","ax",@progbits
	.p2align	4, 0x90
	.type	_ZN42_$LT$$RF$T$u20$as$u20$core..fmt..Debug$GT$3fmt17hced9067a7eb0aec9E,@function
_ZN42_$LT$$RF$T$u20$as$u20$core..fmt..Debug$GT$3fmt17hced9067a7eb0aec9E:
.Lfunc_begin26:
	.loc	35 2390 0 is_stmt 1
	.cfi_startproc
	subq	$24, %rsp
	.cfi_def_cfa_offset 32
	movq	%rdi, 8(%rsp)
	movq	%rsi, 16(%rsp)
.Ltmp337:
	.loc	35 2390 71 prologue_end
	movq	(%rdi), %rdi
	.loc	35 2390 62 is_stmt 0
	callq	_ZN67_$LT$core..num..error..IntErrorKind$u20$as$u20$core..fmt..Debug$GT$3fmt17h912039d10bafb446E
	.loc	35 2390 84
	andb	$1, %al
	.loc	35 2390 84 epilogue_begin
	addq	$24, %rsp
	.cfi_def_cfa_offset 8
	retq
.Ltmp338:
.Lfunc_end26:
	.size	_ZN42_$LT$$RF$T$u20$as$u20$core..fmt..Debug$GT$3fmt17hced9067a7eb0aec9E, .Lfunc_end26-_ZN42_$LT$$RF$T$u20$as$u20$core..fmt..Debug$GT$3fmt17hced9067a7eb0aec9E
	.cfi_endproc

	.section	".text._ZN44_$LT$$RF$T$u20$as$u20$core..fmt..Display$GT$3fmt17h28f6948f72e47c1dE","ax",@progbits
	.p2align	4, 0x90
	.type	_ZN44_$LT$$RF$T$u20$as$u20$core..fmt..Display$GT$3fmt17h28f6948f72e47c1dE,@function
_ZN44_$LT$$RF$T$u20$as$u20$core..fmt..Display$GT$3fmt17h28f6948f72e47c1dE:
.Lfunc_begin27:
	.loc	35 2390 0 is_stmt 1
	.cfi_startproc
	subq	$24, %rsp
	.cfi_def_cfa_offset 32
	movq	%rsi, %rdx
	movq	%rdi, %rax
	movq	%rax, 8(%rsp)
	movq	%rdx, 16(%rsp)
.Ltmp339:
	.loc	35 2390 71 prologue_end
	movq	(%rax), %rdi
	movq	8(%rax), %rsi
	.loc	35 2390 62 is_stmt 0
	callq	*_ZN42_$LT$str$u20$as$u20$core..fmt..Display$GT$3fmt17h7dd41532bea3c59dE@GOTPCREL(%rip)
	.loc	35 2390 84
	andb	$1, %al
	.loc	35 2390 84 epilogue_begin
	addq	$24, %rsp
	.cfi_def_cfa_offset 8
	retq
.Ltmp340:
.Lfunc_end27:
	.size	_ZN44_$LT$$RF$T$u20$as$u20$core..fmt..Display$GT$3fmt17h28f6948f72e47c1dE, .Lfunc_end27-_ZN44_$LT$$RF$T$u20$as$u20$core..fmt..Display$GT$3fmt17h28f6948f72e47c1dE
	.cfi_endproc

	.section	".text._ZN44_$LT$$RF$T$u20$as$u20$core..fmt..Display$GT$3fmt17h8d0a21de454e017eE","ax",@progbits
	.p2align	4, 0x90
	.type	_ZN44_$LT$$RF$T$u20$as$u20$core..fmt..Display$GT$3fmt17h8d0a21de454e017eE,@function
_ZN44_$LT$$RF$T$u20$as$u20$core..fmt..Display$GT$3fmt17h8d0a21de454e017eE:
.Lfunc_begin28:
	.loc	35 2390 0 is_stmt 1
	.cfi_startproc
	subq	$24, %rsp
	.cfi_def_cfa_offset 32
	movq	%rdi, 8(%rsp)
	movq	%rsi, 16(%rsp)
.Ltmp341:
	.loc	35 2390 71 prologue_end
	movq	(%rdi), %rdi
	.loc	35 2390 62 is_stmt 0
	callq	_ZN44_$LT$$RF$T$u20$as$u20$core..fmt..Display$GT$3fmt17h28f6948f72e47c1dE
	.loc	35 2390 84
	andb	$1, %al
	.loc	35 2390 84 epilogue_begin
	addq	$24, %rsp
	.cfi_def_cfa_offset 8
	retq
.Ltmp342:
.Lfunc_end28:
	.size	_ZN44_$LT$$RF$T$u20$as$u20$core..fmt..Display$GT$3fmt17h8d0a21de454e017eE, .Lfunc_end28-_ZN44_$LT$$RF$T$u20$as$u20$core..fmt..Display$GT$3fmt17h8d0a21de454e017eE
	.cfi_endproc

	.section	".text._ZN45_$LT$$LP$$RP$$u20$as$u20$core..fmt..Debug$GT$3fmt17h3a17b5fe2e5c36f1E","ax",@progbits
	.p2align	4, 0x90
	.type	_ZN45_$LT$$LP$$RP$$u20$as$u20$core..fmt..Debug$GT$3fmt17h3a17b5fe2e5c36f1E,@function
_ZN45_$LT$$LP$$RP$$u20$as$u20$core..fmt..Debug$GT$3fmt17h3a17b5fe2e5c36f1E:
.Lfunc_begin29:
	.loc	35 2648 0 is_stmt 1
	.cfi_startproc
	subq	$24, %rsp
	.cfi_def_cfa_offset 32
	movq	%rsi, (%rsp)
	movq	%rdi, %rax
	movq	(%rsp), %rdi
	movq	%rax, 8(%rsp)
	movq	%rdi, 16(%rsp)
.Ltmp343:
	.loc	35 2649 9 prologue_end
	leaq	.L__unnamed_14(%rip), %rsi
	movl	$2, %edx
	callq	*_ZN4core3fmt9Formatter3pad17h32c38f34541ead7eE@GOTPCREL(%rip)
	.loc	35 2650 6
	andb	$1, %al
	.loc	35 2650 6 epilogue_begin is_stmt 0
	addq	$24, %rsp
	.cfi_def_cfa_offset 8
	retq
.Ltmp344:
.Lfunc_end29:
	.size	_ZN45_$LT$$LP$$RP$$u20$as$u20$core..fmt..Debug$GT$3fmt17h3a17b5fe2e5c36f1E, .Lfunc_end29-_ZN45_$LT$$LP$$RP$$u20$as$u20$core..fmt..Debug$GT$3fmt17h3a17b5fe2e5c36f1E
	.cfi_endproc

	.section	".text._ZN49_$LT$F$u20$as$u20$core..str..pattern..Pattern$GT$13into_searcher17h70a3a3a13f779308E","ax",@progbits
	.p2align	4, 0x90
	.type	_ZN49_$LT$F$u20$as$u20$core..str..pattern..Pattern$GT$13into_searcher17h70a3a3a13f779308E,@function
_ZN49_$LT$F$u20$as$u20$core..str..pattern..Pattern$GT$13into_searcher17h70a3a3a13f779308E:
.Lfunc_begin30:
	.loc	10 716 0 is_stmt 1
	.cfi_startproc
	subq	$88, %rsp
	.cfi_def_cfa_offset 96
	movq	%rdi, 8(%rsp)
	movq	%rdi, 16(%rsp)
	movq	%rsi, 72(%rsp)
	movq	%rdx, 80(%rsp)
.Ltmp345:
	.loc	10 717 21 prologue_end
	leaq	24(%rsp), %rdi
	callq	_ZN95_$LT$core..str..pattern..MultiCharEqPattern$LT$C$GT$$u20$as$u20$core..str..pattern..Pattern$GT$13into_searcher17h91506ccffde9e809E
	movq	8(%rsp), %rdi
	.loc	10 717 13 is_stmt 0
	leaq	24(%rsp), %rsi
	movl	$40, %edx
	callq	memcpy@PLT
	movq	16(%rsp), %rax
	.loc	10 718 10 epilogue_begin is_stmt 1
	addq	$88, %rsp
	.cfi_def_cfa_offset 8
	retq
.Ltmp346:
.Lfunc_end30:
	.size	_ZN49_$LT$F$u20$as$u20$core..str..pattern..Pattern$GT$13into_searcher17h70a3a3a13f779308E, .Lfunc_end30-_ZN49_$LT$F$u20$as$u20$core..str..pattern..Pattern$GT$13into_searcher17h70a3a3a13f779308E
	.cfi_endproc

	.section	".text._ZN49_$LT$usize$u20$as$u20$core..iter..range..Step$GT$17forward_unchecked17h9403b3925071579fE","ax",@progbits
	.p2align	4, 0x90
	.type	_ZN49_$LT$usize$u20$as$u20$core..iter..range..Step$GT$17forward_unchecked17h9403b3925071579fE,@function
_ZN49_$LT$usize$u20$as$u20$core..iter..range..Step$GT$17forward_unchecked17h9403b3925071579fE:
.Lfunc_begin31:
	.file	42 "/rustc/90b35a6239c3d8bdabc530a6a0816f7ff89a0aaf/library/core/src/iter" "range.rs"
	.loc	42 205 0
	.cfi_startproc
	movq	%rdi, -32(%rsp)
	movq	%rsi, -24(%rsp)
	movq	%rdi, -16(%rsp)
	movq	%rsi, -8(%rsp)
	movq	-24(%rsp), %rcx
	movq	-32(%rsp), %rax
.Ltmp347:
	.file	43 "/rustc/90b35a6239c3d8bdabc530a6a0816f7ff89a0aaf/library/core/src/num" "uint_macros.rs"
	.loc	43 573 17 prologue_end
	addq	%rcx, %rax
.Ltmp348:
	.loc	42 208 10
	retq
.Ltmp349:
.Lfunc_end31:
	.size	_ZN49_$LT$usize$u20$as$u20$core..iter..range..Step$GT$17forward_unchecked17h9403b3925071579fE, .Lfunc_end31-_ZN49_$LT$usize$u20$as$u20$core..iter..range..Step$GT$17forward_unchecked17h9403b3925071579fE
	.cfi_endproc

	.section	.text._ZN4core10intrinsics8unlikely17h1f897b99c8e06064E,"ax",@progbits
	.p2align	4, 0x90
	.type	_ZN4core10intrinsics8unlikely17h1f897b99c8e06064E,@function
_ZN4core10intrinsics8unlikely17h1f897b99c8e06064E:
.Lfunc_begin32:
	.file	44 "/rustc/90b35a6239c3d8bdabc530a6a0816f7ff89a0aaf/library/core/src" "intrinsics.rs"
	.loc	44 1007 0
	.cfi_startproc
	movb	%dil, %al
	movb	%al, %cl
	andb	$1, %cl
	movb	%cl, -1(%rsp)
.Ltmp350:
	.loc	44 1009 2 prologue_end
	andb	$1, %al
	retq
.Ltmp351:
.Lfunc_end32:
	.size	_ZN4core10intrinsics8unlikely17h1f897b99c8e06064E, .Lfunc_end32-_ZN4core10intrinsics8unlikely17h1f897b99c8e06064E
	.cfi_endproc

	.section	".text._ZN4core3cmp5impls69_$LT$impl$u20$core..cmp..PartialEq$LT$$RF$B$GT$$u20$for$u20$$RF$A$GT$2eq17hd6a9b14c0a09da39E","ax",@progbits
	.p2align	4, 0x90
	.type	_ZN4core3cmp5impls69_$LT$impl$u20$core..cmp..PartialEq$LT$$RF$B$GT$$u20$for$u20$$RF$A$GT$2eq17hd6a9b14c0a09da39E,@function
_ZN4core3cmp5impls69_$LT$impl$u20$core..cmp..PartialEq$LT$$RF$B$GT$$u20$for$u20$$RF$A$GT$2eq17hd6a9b14c0a09da39E:
.Lfunc_begin33:
	.file	45 "/rustc/90b35a6239c3d8bdabc530a6a0816f7ff89a0aaf/library/core/src" "cmp.rs"
	.loc	45 1817 0
	.cfi_startproc
	subq	$24, %rsp
	.cfi_def_cfa_offset 32
	movq	%rsi, %rax
	movq	%rdi, %rcx
	movq	%rcx, 8(%rsp)
	movq	%rax, 16(%rsp)
.Ltmp352:
	.loc	45 1818 27 prologue_end
	movq	(%rcx), %rdi
	movq	8(%rcx), %rsi
	.loc	45 1818 34 is_stmt 0
	movq	(%rax), %rdx
	movq	8(%rax), %rcx
	.loc	45 1818 13
	callq	_ZN4core3str6traits54_$LT$impl$u20$core..cmp..PartialEq$u20$for$u20$str$GT$2eq17h73508cdfc6b0aa89E
	.loc	45 1819 10 is_stmt 1
	andb	$1, %al
	.loc	45 1819 10 epilogue_begin is_stmt 0
	addq	$24, %rsp
	.cfi_def_cfa_offset 8
	retq
.Ltmp353:
.Lfunc_end33:
	.size	_ZN4core3cmp5impls69_$LT$impl$u20$core..cmp..PartialEq$LT$$RF$B$GT$$u20$for$u20$$RF$A$GT$2eq17hd6a9b14c0a09da39E, .Lfunc_end33-_ZN4core3cmp5impls69_$LT$impl$u20$core..cmp..PartialEq$LT$$RF$B$GT$$u20$for$u20$$RF$A$GT$2eq17hd6a9b14c0a09da39E
	.cfi_endproc

	.section	.text._ZN4core3cmp9PartialEq2ne17h1255bcc7d89e394dE,"ax",@progbits
	.p2align	4, 0x90
	.type	_ZN4core3cmp9PartialEq2ne17h1255bcc7d89e394dE,@function
_ZN4core3cmp9PartialEq2ne17h1255bcc7d89e394dE:
.Lfunc_begin34:
	.loc	45 261 0 is_stmt 1
	.cfi_startproc
	subq	$24, %rsp
	.cfi_def_cfa_offset 32
	movq	%rdi, 8(%rsp)
	movq	%rsi, 16(%rsp)
.Ltmp354:
	.loc	45 262 10 prologue_end
	callq	_ZN70_$LT$core..option..Option$LT$T$GT$$u20$as$u20$core..cmp..PartialEq$GT$2eq17h1feb231c943db3a9E
	.loc	45 262 9 is_stmt 0
	xorb	$-1, %al
	.loc	45 263 6 is_stmt 1
	andb	$1, %al
	.loc	45 263 6 epilogue_begin is_stmt 0
	addq	$24, %rsp
	.cfi_def_cfa_offset 8
	retq
.Ltmp355:
.Lfunc_end34:
	.size	_ZN4core3cmp9PartialEq2ne17h1255bcc7d89e394dE, .Lfunc_end34-_ZN4core3cmp9PartialEq2ne17h1255bcc7d89e394dE
	.cfi_endproc

	.section	.text._ZN4core3fmt9Arguments6new_v117h913c079cbf71a3aeE,"ax",@progbits
	.p2align	4, 0x90
	.type	_ZN4core3fmt9Arguments6new_v117h913c079cbf71a3aeE,@function
_ZN4core3fmt9Arguments6new_v117h913c079cbf71a3aeE:
.Lfunc_begin35:
	.loc	35 345 0 is_stmt 1
	.cfi_startproc
	movq	%rdi, %rax
	movq	%rsi, -16(%rsp)
	movq	%rdx, -8(%rsp)
.Ltmp356:
	.loc	35 350 9 prologue_end
	movq	%rsi, (%rdi)
	movq	$2, 8(%rdi)
	movq	.L__unnamed_8(%rip), %rsi
	movq	.L__unnamed_8+8(%rip), %rcx
	movq	%rsi, 32(%rdi)
	movq	%rcx, 40(%rdi)
	movq	%rdx, 16(%rdi)
	movq	$1, 24(%rdi)
	.loc	35 351 6
	retq
.Ltmp357:
.Lfunc_end35:
	.size	_ZN4core3fmt9Arguments6new_v117h913c079cbf71a3aeE, .Lfunc_end35-_ZN4core3fmt9Arguments6new_v117h913c079cbf71a3aeE
	.cfi_endproc

	.section	.text._ZN4core3fmt9Arguments6new_v117hcb21c98434451729E,"ax",@progbits
	.p2align	4, 0x90
	.type	_ZN4core3fmt9Arguments6new_v117hcb21c98434451729E,@function
_ZN4core3fmt9Arguments6new_v117hcb21c98434451729E:
.Lfunc_begin36:
	.loc	35 345 0
	.cfi_startproc
	movq	%rdi, %rax
	movq	%rsi, -16(%rsp)
	movq	%rdx, -8(%rsp)
.Ltmp358:
	.loc	35 350 9 prologue_end
	movq	%rsi, (%rdi)
	movq	$1, 8(%rdi)
	movq	.L__unnamed_8(%rip), %rsi
	movq	.L__unnamed_8+8(%rip), %rcx
	movq	%rsi, 32(%rdi)
	movq	%rcx, 40(%rdi)
	movq	%rdx, 16(%rdi)
	movq	$1, 24(%rdi)
	.loc	35 351 6
	retq
.Ltmp359:
.Lfunc_end36:
	.size	_ZN4core3fmt9Arguments6new_v117hcb21c98434451729E, .Lfunc_end36-_ZN4core3fmt9Arguments6new_v117hcb21c98434451729E
	.cfi_endproc

	.section	.text._ZN4core3fmt9Arguments6new_v117hf462f5cc194359b5E,"ax",@progbits
	.p2align	4, 0x90
	.type	_ZN4core3fmt9Arguments6new_v117hf462f5cc194359b5E,@function
_ZN4core3fmt9Arguments6new_v117hf462f5cc194359b5E:
.Lfunc_begin37:
	.loc	35 345 0
	.cfi_startproc
	movq	%rdi, %rax
	movq	%rsi, -16(%rsp)
	movq	%rdx, -8(%rsp)
.Ltmp360:
	.loc	35 350 9 prologue_end
	movq	%rsi, (%rdi)
	movq	$3, 8(%rdi)
	movq	.L__unnamed_8(%rip), %rsi
	movq	.L__unnamed_8+8(%rip), %rcx
	movq	%rsi, 32(%rdi)
	movq	%rcx, 40(%rdi)
	movq	%rdx, 16(%rdi)
	movq	$2, 24(%rdi)
	.loc	35 351 6
	retq
.Ltmp361:
.Lfunc_end37:
	.size	_ZN4core3fmt9Arguments6new_v117hf462f5cc194359b5E, .Lfunc_end37-_ZN4core3fmt9Arguments6new_v117hf462f5cc194359b5E
	.cfi_endproc

	.section	.text._ZN4core3fmt9Arguments9new_const17h131a10b3a9e7ea51E,"ax",@progbits
	.p2align	4, 0x90
	.type	_ZN4core3fmt9Arguments9new_const17h131a10b3a9e7ea51E,@function
_ZN4core3fmt9Arguments9new_const17h131a10b3a9e7ea51E:
.Lfunc_begin38:
	.loc	35 337 0
	.cfi_startproc
	movq	%rdi, %rax
	movq	%rsi, -8(%rsp)
.Ltmp362:
	.loc	35 339 9 prologue_end
	movq	%rsi, (%rdi)
	movq	$1, 8(%rdi)
	movq	.L__unnamed_8(%rip), %rdx
	movq	.L__unnamed_8+8(%rip), %rcx
	movq	%rdx, 32(%rdi)
	movq	%rcx, 40(%rdi)
	movl	$8, %ecx
	movq	%rcx, 16(%rdi)
	movq	$0, 24(%rdi)
	.loc	35 340 6
	retq
.Ltmp363:
.Lfunc_end38:
	.size	_ZN4core3fmt9Arguments9new_const17h131a10b3a9e7ea51E, .Lfunc_end38-_ZN4core3fmt9Arguments9new_const17h131a10b3a9e7ea51E
	.cfi_endproc

	.section	".text._ZN4core3num23_$LT$impl$u20$usize$GT$11checked_add17hd05d767ca74e485dE","ax",@progbits
	.p2align	4, 0x90
	.type	_ZN4core3num23_$LT$impl$u20$usize$GT$11checked_add17hd05d767ca74e485dE,@function
_ZN4core3num23_$LT$impl$u20$usize$GT$11checked_add17hd05d767ca74e485dE:
.Lfunc_begin39:
	.loc	43 486 0
	.cfi_startproc
	movq	%rdi, -56(%rsp)
	movq	%rsi, -48(%rsp)
	movq	%rdi, -24(%rsp)
	movq	%rsi, -16(%rsp)
.Ltmp364:
	.loc	43 494 26 prologue_end
	addq	%rsi, %rdi
	setb	%al
	.file	46 "/rustc/90b35a6239c3d8bdabc530a6a0816f7ff89a0aaf/library/core/src/num" "mod.rs"
	.loc	46 22 9
	andb	$1, %al
	movb	%al, -1(%rsp)
	testb	$1, -1(%rsp)
	jne	.LBB39_2
	.loc	46 0 9 is_stmt 0
	movq	-48(%rsp), %rcx
	movq	-56(%rsp), %rax
	.loc	43 498 31 is_stmt 1
	addq	%rcx, %rax
	.loc	43 498 17 is_stmt 0
	movq	%rax, -32(%rsp)
	movq	$1, -40(%rsp)
	.loc	43 494 13 is_stmt 1
	jmp	.LBB39_3
.LBB39_2:
	.loc	43 495 17
	movq	.L__unnamed_8(%rip), %rcx
	movq	.L__unnamed_8+8(%rip), %rax
	movq	%rcx, -40(%rsp)
	movq	%rax, -32(%rsp)
.LBB39_3:
	.loc	43 500 10
	movq	-40(%rsp), %rax
	movq	-32(%rsp), %rdx
	retq
.Ltmp365:
.Lfunc_end39:
	.size	_ZN4core3num23_$LT$impl$u20$usize$GT$11checked_add17hd05d767ca74e485dE, .Lfunc_end39-_ZN4core3num23_$LT$impl$u20$usize$GT$11checked_add17hd05d767ca74e485dE
	.cfi_endproc

	.section	".text._ZN4core3num7nonzero16NonZero$LT$T$GT$13new_unchecked18precondition_check17hfa3dbaaed3567240E","ax",@progbits
	.p2align	4, 0x90
	.type	_ZN4core3num7nonzero16NonZero$LT$T$GT$13new_unchecked18precondition_check17hfa3dbaaed3567240E,@function
_ZN4core3num7nonzero16NonZero$LT$T$GT$13new_unchecked18precondition_check17hfa3dbaaed3567240E:
.Lfunc_begin40:
	.loc	3 68 0
	.cfi_startproc
	pushq	%rax
	.cfi_def_cfa_offset 16
.Ltmp366:
	.loc	3 70 21 prologue_end
	leaq	.L__unnamed_15(%rip), %rdi
	movq	_ZN4core9panicking14panic_nounwind17hd0dad372654c389aE@GOTPCREL(%rip), %rax
	movl	$92, %esi
	callq	*%rax
.Ltmp367:
.Lfunc_end40:
	.size	_ZN4core3num7nonzero16NonZero$LT$T$GT$13new_unchecked18precondition_check17hfa3dbaaed3567240E, .Lfunc_end40-_ZN4core3num7nonzero16NonZero$LT$T$GT$13new_unchecked18precondition_check17hfa3dbaaed3567240E
	.cfi_endproc

	.section	.text._ZN4core3ops8function5FnMut8call_mut17hc0f7f67c7e2316a4E,"ax",@progbits
	.p2align	4, 0x90
	.type	_ZN4core3ops8function5FnMut8call_mut17hc0f7f67c7e2316a4E,@function
_ZN4core3ops8function5FnMut8call_mut17hc0f7f67c7e2316a4E:
.Lfunc_begin41:
	.file	47 "/rustc/90b35a6239c3d8bdabc530a6a0816f7ff89a0aaf/library/core/src/ops" "function.rs"
	.loc	47 166 0
	.cfi_startproc
	subq	$24, %rsp
	.cfi_def_cfa_offset 32
	movq	%rsi, (%rsp)
	movq	%rdx, 8(%rsp)
	movq	%rdi, 16(%rsp)
.Ltmp368:
	.loc	47 166 5 prologue_end
	movq	(%rsp), %rdi
	movq	8(%rsp), %rsi
	callq	_ZN4core3num23_$LT$impl$u20$usize$GT$11checked_add17hd05d767ca74e485dE
	.loc	47 166 5 epilogue_begin is_stmt 0
	addq	$24, %rsp
	.cfi_def_cfa_offset 8
	retq
.Ltmp369:
.Lfunc_end41:
	.size	_ZN4core3ops8function5FnMut8call_mut17hc0f7f67c7e2316a4E, .Lfunc_end41-_ZN4core3ops8function5FnMut8call_mut17hc0f7f67c7e2316a4E
	.cfi_endproc

	.section	".text._ZN4core3ops8function5impls80_$LT$impl$u20$core..ops..function..FnOnce$LT$A$GT$$u20$for$u20$$RF$mut$u20$F$GT$9call_once17hf63011236c4295e8E","ax",@progbits
	.p2align	4, 0x90
	.type	_ZN4core3ops8function5impls80_$LT$impl$u20$core..ops..function..FnOnce$LT$A$GT$$u20$for$u20$$RF$mut$u20$F$GT$9call_once17hf63011236c4295e8E,@function
_ZN4core3ops8function5impls80_$LT$impl$u20$core..ops..function..FnOnce$LT$A$GT$$u20$for$u20$$RF$mut$u20$F$GT$9call_once17hf63011236c4295e8E:
.Lfunc_begin42:
	.loc	47 304 0 is_stmt 1
	.cfi_startproc
	subq	$24, %rsp
	.cfi_def_cfa_offset 32
	movq	%rsi, 8(%rsp)
	movq	%rdi, 16(%rsp)
.Ltmp370:
	.loc	47 305 13 prologue_end
	movq	8(%rsp), %rsi
	callq	_ZN5alloc3str17join_generic_copy28_$u7b$$u7b$closure$u7d$$u7d$17he90ada4e4e774c8cE
	.loc	47 306 10 epilogue_begin
	addq	$24, %rsp
	.cfi_def_cfa_offset 8
	retq
.Ltmp371:
.Lfunc_end42:
	.size	_ZN4core3ops8function5impls80_$LT$impl$u20$core..ops..function..FnOnce$LT$A$GT$$u20$for$u20$$RF$mut$u20$F$GT$9call_once17hf63011236c4295e8E, .Lfunc_end42-_ZN4core3ops8function5impls80_$LT$impl$u20$core..ops..function..FnOnce$LT$A$GT$$u20$for$u20$$RF$mut$u20$F$GT$9call_once17hf63011236c4295e8E
	.cfi_endproc

	.section	".text._ZN4core3ops8function6FnOnce40call_once$u7b$$u7b$vtable.shim$u7d$$u7d$17hde893d74986b00faE","ax",@progbits
	.p2align	4, 0x90
	.type	_ZN4core3ops8function6FnOnce40call_once$u7b$$u7b$vtable.shim$u7d$$u7d$17hde893d74986b00faE,@function
_ZN4core3ops8function6FnOnce40call_once$u7b$$u7b$vtable.shim$u7d$$u7d$17hde893d74986b00faE:
.Lfunc_begin43:
	.loc	47 250 0
	.cfi_startproc
	subq	$24, %rsp
	.cfi_def_cfa_offset 32
	movq	%rdi, 16(%rsp)
.Ltmp372:
	.loc	47 250 5 prologue_end
	movq	(%rdi), %rdi
	callq	_ZN4core3ops8function6FnOnce9call_once17he4583a1a38d52700E
	.loc	47 250 5 epilogue_begin is_stmt 0
	addq	$24, %rsp
	.cfi_def_cfa_offset 8
	retq
.Ltmp373:
.Lfunc_end43:
	.size	_ZN4core3ops8function6FnOnce40call_once$u7b$$u7b$vtable.shim$u7d$$u7d$17hde893d74986b00faE, .Lfunc_end43-_ZN4core3ops8function6FnOnce40call_once$u7b$$u7b$vtable.shim$u7d$$u7d$17hde893d74986b00faE
	.cfi_endproc

	.section	.text._ZN4core3ops8function6FnOnce9call_once17h0c7a904339fe6bc8E,"ax",@progbits
	.p2align	4, 0x90
	.type	_ZN4core3ops8function6FnOnce9call_once17h0c7a904339fe6bc8E,@function
_ZN4core3ops8function6FnOnce9call_once17h0c7a904339fe6bc8E:
.Lfunc_begin44:
	.loc	47 250 0 is_stmt 1
	.cfi_startproc
	subq	$24, %rsp
	.cfi_def_cfa_offset 32
	movq	%rdi, 16(%rsp)
.Ltmp374:
	.loc	47 250 5 prologue_end
	callq	*%rdi
	.loc	47 250 5 epilogue_begin is_stmt 0
	addq	$24, %rsp
	.cfi_def_cfa_offset 8
	retq
.Ltmp375:
.Lfunc_end44:
	.size	_ZN4core3ops8function6FnOnce9call_once17h0c7a904339fe6bc8E, .Lfunc_end44-_ZN4core3ops8function6FnOnce9call_once17h0c7a904339fe6bc8E
	.cfi_endproc

	.section	.text._ZN4core3ops8function6FnOnce9call_once17he4583a1a38d52700E,"ax",@progbits
	.p2align	4, 0x90
	.type	_ZN4core3ops8function6FnOnce9call_once17he4583a1a38d52700E,@function
_ZN4core3ops8function6FnOnce9call_once17he4583a1a38d52700E:
.Lfunc_begin45:
	.loc	47 250 0 is_stmt 1
	.cfi_startproc
	.cfi_personality 155, DW.ref.rust_eh_personality
	.cfi_lsda 27, .Lexception7
	subq	$40, %rsp
	.cfi_def_cfa_offset 48
	movq	%rdi, 8(%rsp)
.Ltmp376:
	leaq	8(%rsp), %rdi
.Ltmp379:
	.loc	47 250 5 prologue_end
	callq	_ZN3std2rt10lang_start28_$u7b$$u7b$closure$u7d$$u7d$17h3fb5031cb72365cdE
.Ltmp377:
	movl	%eax, 4(%rsp)
	jmp	.LBB45_3
.LBB45_1:
	movq	24(%rsp), %rdi
	callq	_Unwind_Resume@PLT
.LBB45_2:
.Ltmp378:
	.loc	47 0 5 is_stmt 0
	movq	%rax, %rcx
	movl	%edx, %eax
	movq	%rcx, 24(%rsp)
	movl	%eax, 32(%rsp)
	jmp	.LBB45_1
.LBB45_3:
	movl	4(%rsp), %eax
	.loc	47 250 5 epilogue_begin
	addq	$40, %rsp
	.cfi_def_cfa_offset 8
	retq
.Ltmp380:
.Lfunc_end45:
	.size	_ZN4core3ops8function6FnOnce9call_once17he4583a1a38d52700E, .Lfunc_end45-_ZN4core3ops8function6FnOnce9call_once17he4583a1a38d52700E
	.cfi_endproc
	.section	.gcc_except_table._ZN4core3ops8function6FnOnce9call_once17he4583a1a38d52700E,"a",@progbits
	.p2align	2, 0x0
GCC_except_table45:
.Lexception7:
	.byte	255
	.byte	255
	.byte	1
	.uleb128 .Lcst_end7-.Lcst_begin7
.Lcst_begin7:
	.uleb128 .Ltmp376-.Lfunc_begin45
	.uleb128 .Ltmp377-.Ltmp376
	.uleb128 .Ltmp378-.Lfunc_begin45
	.byte	0
	.uleb128 .Ltmp377-.Lfunc_begin45
	.uleb128 .Lfunc_end45-.Ltmp377
	.byte	0
	.byte	0
.Lcst_end7:
	.p2align	2, 0x0

	.section	".text._ZN4core3ptr100drop_in_place$LT$core..option..Option$LT$std..sys..pal..unix..process..process_common..Stdio$GT$$GT$17h9f2ef8345de0d526E","ax",@progbits
	.p2align	4, 0x90
	.type	_ZN4core3ptr100drop_in_place$LT$core..option..Option$LT$std..sys..pal..unix..process..process_common..Stdio$GT$$GT$17h9f2ef8345de0d526E,@function
_ZN4core3ptr100drop_in_place$LT$core..option..Option$LT$std..sys..pal..unix..process..process_common..Stdio$GT$$GT$17h9f2ef8345de0d526E:
.Lfunc_begin46:
	.loc	19 574 0 is_stmt 1
	.cfi_startproc
	subq	$24, %rsp
	.cfi_def_cfa_offset 32
	movq	%rdi, 8(%rsp)
	movq	%rdi, 16(%rsp)
.Ltmp381:
	.loc	19 574 1 prologue_end
	movl	$1, %eax
	xorl	%ecx, %ecx
	cmpl	$5, (%rdi)
	cmoveq	%rcx, %rax
	cmpq	$0, %rax
	jne	.LBB46_2
.LBB46_1:
	.loc	19 574 1 epilogue_begin is_stmt 0
	addq	$24, %rsp
	.cfi_def_cfa_offset 8
	retq
.LBB46_2:
	.cfi_def_cfa_offset 32
	.loc	19 0 1
	movq	8(%rsp), %rdi
	.loc	19 574 1
	callq	_ZN4core3ptr72drop_in_place$LT$std..sys..pal..unix..process..process_common..Stdio$GT$17hbed6cc02a047e512E
	jmp	.LBB46_1
.Ltmp382:
.Lfunc_end46:
	.size	_ZN4core3ptr100drop_in_place$LT$core..option..Option$LT$std..sys..pal..unix..process..process_common..Stdio$GT$$GT$17h9f2ef8345de0d526E, .Lfunc_end46-_ZN4core3ptr100drop_in_place$LT$core..option..Option$LT$std..sys..pal..unix..process..process_common..Stdio$GT$$GT$17h9f2ef8345de0d526E
	.cfi_endproc

	.section	".text._ZN4core3ptr101drop_in_place$LT$core..result..Result$LT$alloc..string..String$C$alloc..string..FromUtf8Error$GT$$GT$17ha8986d83f3cf914aE","ax",@progbits
	.p2align	4, 0x90
	.type	_ZN4core3ptr101drop_in_place$LT$core..result..Result$LT$alloc..string..String$C$alloc..string..FromUtf8Error$GT$$GT$17ha8986d83f3cf914aE,@function
_ZN4core3ptr101drop_in_place$LT$core..result..Result$LT$alloc..string..String$C$alloc..string..FromUtf8Error$GT$$GT$17ha8986d83f3cf914aE:
.Lfunc_begin47:
	.loc	19 574 0 is_stmt 1
	.cfi_startproc
	subq	$24, %rsp
	.cfi_def_cfa_offset 32
	movq	%rdi, 8(%rsp)
	movq	%rdi, 16(%rsp)
.Ltmp383:
	.loc	19 574 1 prologue_end
	movabsq	$-9223372036854775808, %rdx
	movl	$1, %eax
	xorl	%ecx, %ecx
	cmpq	%rdx, (%rdi)
	cmoveq	%rcx, %rax
	cmpq	$0, %rax
	jne	.LBB47_2
	.loc	19 0 1 is_stmt 0
	movq	8(%rsp), %rdi
	.loc	19 574 1
	addq	$8, %rdi
	callq	_ZN4core3ptr42drop_in_place$LT$alloc..string..String$GT$17h7e3bcb296f93bb25E
	jmp	.LBB47_3
.LBB47_2:
	.loc	19 0 1
	movq	8(%rsp), %rdi
	.loc	19 574 1
	callq	_ZN4core3ptr49drop_in_place$LT$alloc..string..FromUtf8Error$GT$17h448f1838a8206121E
.LBB47_3:
	.loc	19 574 1 epilogue_begin
	addq	$24, %rsp
	.cfi_def_cfa_offset 8
	retq
.Ltmp384:
.Lfunc_end47:
	.size	_ZN4core3ptr101drop_in_place$LT$core..result..Result$LT$alloc..string..String$C$alloc..string..FromUtf8Error$GT$$GT$17ha8986d83f3cf914aE, .Lfunc_end47-_ZN4core3ptr101drop_in_place$LT$core..result..Result$LT$alloc..string..String$C$alloc..string..FromUtf8Error$GT$$GT$17ha8986d83f3cf914aE
	.cfi_endproc

	.section	".text._ZN4core3ptr101drop_in_place$LT$std..io..error..ErrorData$LT$alloc..boxed..Box$LT$std..io..error..Custom$GT$$GT$$GT$17hb5db7864fd72cc0dE","ax",@progbits
	.p2align	4, 0x90
	.type	_ZN4core3ptr101drop_in_place$LT$std..io..error..ErrorData$LT$alloc..boxed..Box$LT$std..io..error..Custom$GT$$GT$$GT$17hb5db7864fd72cc0dE,@function
_ZN4core3ptr101drop_in_place$LT$std..io..error..ErrorData$LT$alloc..boxed..Box$LT$std..io..error..Custom$GT$$GT$$GT$17hb5db7864fd72cc0dE:
.Lfunc_begin48:
	.loc	19 574 0 is_stmt 1
	.cfi_startproc
	subq	$24, %rsp
	.cfi_def_cfa_offset 32
	movq	%rdi, 8(%rsp)
	movq	%rdi, 16(%rsp)
.Ltmp385:
	.loc	19 574 1 prologue_end
	movb	(%rdi), %al
	subb	$3, %al
	jb	.LBB48_2
	jmp	.LBB48_1
.LBB48_1:
	.loc	19 0 1 is_stmt 0
	movq	8(%rsp), %rdi
	.loc	19 574 1
	addq	$8, %rdi
	callq	_ZN4core3ptr68drop_in_place$LT$alloc..boxed..Box$LT$std..io..error..Custom$GT$$GT$17h4ccfbab9d7c3ef87E
.LBB48_2:
	.loc	19 574 1 epilogue_begin
	addq	$24, %rsp
	.cfi_def_cfa_offset 8
	retq
.Ltmp386:
.Lfunc_end48:
	.size	_ZN4core3ptr101drop_in_place$LT$std..io..error..ErrorData$LT$alloc..boxed..Box$LT$std..io..error..Custom$GT$$GT$$GT$17hb5db7864fd72cc0dE, .Lfunc_end48-_ZN4core3ptr101drop_in_place$LT$std..io..error..ErrorData$LT$alloc..boxed..Box$LT$std..io..error..Custom$GT$$GT$$GT$17hb5db7864fd72cc0dE
	.cfi_endproc

	.section	".text._ZN4core3ptr118drop_in_place$LT$alloc..boxed..Box$LT$dyn$u20$core..error..Error$u2b$core..marker..Sync$u2b$core..marker..Send$GT$$GT$17h231974e10b1dccddE","ax",@progbits
	.p2align	4, 0x90
	.type	_ZN4core3ptr118drop_in_place$LT$alloc..boxed..Box$LT$dyn$u20$core..error..Error$u2b$core..marker..Sync$u2b$core..marker..Send$GT$$GT$17h231974e10b1dccddE,@function
_ZN4core3ptr118drop_in_place$LT$alloc..boxed..Box$LT$dyn$u20$core..error..Error$u2b$core..marker..Sync$u2b$core..marker..Send$GT$$GT$17h231974e10b1dccddE:
.Lfunc_begin49:
	.loc	19 574 0 is_stmt 1
	.cfi_startproc
	.cfi_personality 155, DW.ref.rust_eh_personality
	.cfi_lsda 27, .Lexception8
	subq	$56, %rsp
	.cfi_def_cfa_offset 64
	movq	%rdi, 8(%rsp)
	movq	%rdi, 32(%rsp)
.Ltmp393:
	.loc	19 574 1 prologue_end
	movq	(%rdi), %rax
	movq	%rax, 16(%rsp)
	movq	8(%rdi), %rax
	movq	(%rax), %rax
	movq	%rax, 24(%rsp)
	cmpq	$0, %rax
	je	.LBB49_2
.Ltmp387:
	.loc	19 0 1 is_stmt 0
	movq	24(%rsp), %rax
	movq	16(%rsp), %rdi
	.loc	19 574 1
	callq	*%rax
.Ltmp388:
	jmp	.LBB49_2
.LBB49_2:
	.loc	19 0 1
	movq	8(%rsp), %rdi
	.loc	19 574 1
	callq	_ZN72_$LT$alloc..boxed..Box$LT$T$C$A$GT$$u20$as$u20$core..ops..drop..Drop$GT$4drop17h1199e3054e267c16E
	.loc	19 574 1 epilogue_begin
	addq	$56, %rsp
	.cfi_def_cfa_offset 8
	retq
.LBB49_3:
	.cfi_def_cfa_offset 64
.Ltmp390:
	.loc	19 0 1
	movq	8(%rsp), %rdi
	.loc	19 574 1
	callq	_ZN72_$LT$alloc..boxed..Box$LT$T$C$A$GT$$u20$as$u20$core..ops..drop..Drop$GT$4drop17h1199e3054e267c16E
.Ltmp391:
	jmp	.LBB49_6
.LBB49_4:
.Ltmp389:
	.loc	19 0 1
	movq	%rax, %rcx
	movl	%edx, %eax
	movq	%rcx, 40(%rsp)
	movl	%eax, 48(%rsp)
	jmp	.LBB49_3
.LBB49_5:
.Ltmp392:
	.loc	19 574 1
	movq	_ZN4core9panicking16panic_in_cleanup17hddc1b09eaad4daa3E@GOTPCREL(%rip), %rax
	callq	*%rax
.LBB49_6:
	movq	40(%rsp), %rdi
	callq	_Unwind_Resume@PLT
.Ltmp394:
.Lfunc_end49:
	.size	_ZN4core3ptr118drop_in_place$LT$alloc..boxed..Box$LT$dyn$u20$core..error..Error$u2b$core..marker..Sync$u2b$core..marker..Send$GT$$GT$17h231974e10b1dccddE, .Lfunc_end49-_ZN4core3ptr118drop_in_place$LT$alloc..boxed..Box$LT$dyn$u20$core..error..Error$u2b$core..marker..Sync$u2b$core..marker..Send$GT$$GT$17h231974e10b1dccddE
	.cfi_endproc
	.section	".gcc_except_table._ZN4core3ptr118drop_in_place$LT$alloc..boxed..Box$LT$dyn$u20$core..error..Error$u2b$core..marker..Sync$u2b$core..marker..Send$GT$$GT$17h231974e10b1dccddE","a",@progbits
	.p2align	2, 0x0
GCC_except_table49:
.Lexception8:
	.byte	255
	.byte	155
	.uleb128 .Lttbase2-.Lttbaseref2
.Lttbaseref2:
	.byte	1
	.uleb128 .Lcst_end8-.Lcst_begin8
.Lcst_begin8:
	.uleb128 .Ltmp387-.Lfunc_begin49
	.uleb128 .Ltmp388-.Ltmp387
	.uleb128 .Ltmp389-.Lfunc_begin49
	.byte	0
	.uleb128 .Ltmp388-.Lfunc_begin49
	.uleb128 .Ltmp390-.Ltmp388
	.byte	0
	.byte	0
	.uleb128 .Ltmp390-.Lfunc_begin49
	.uleb128 .Ltmp391-.Ltmp390
	.uleb128 .Ltmp392-.Lfunc_begin49
	.byte	1
	.uleb128 .Ltmp391-.Lfunc_begin49
	.uleb128 .Lfunc_end49-.Ltmp391
	.byte	0
	.byte	0
.Lcst_end8:
	.byte	127
	.byte	0
	.p2align	2, 0x0
.Lttbase2:
	.byte	0
	.p2align	2, 0x0

	.section	".text._ZN4core3ptr152drop_in_place$LT$alloc..collections..btree..map..BTreeMap$LT$std..ffi..os_str..OsString$C$core..option..Option$LT$std..ffi..os_str..OsString$GT$$GT$$GT$17h266ad7bb2639aad2E","ax",@progbits
	.p2align	4, 0x90
	.type	_ZN4core3ptr152drop_in_place$LT$alloc..collections..btree..map..BTreeMap$LT$std..ffi..os_str..OsString$C$core..option..Option$LT$std..ffi..os_str..OsString$GT$$GT$$GT$17h266ad7bb2639aad2E,@function
_ZN4core3ptr152drop_in_place$LT$alloc..collections..btree..map..BTreeMap$LT$std..ffi..os_str..OsString$C$core..option..Option$LT$std..ffi..os_str..OsString$GT$$GT$$GT$17h266ad7bb2639aad2E:
.Lfunc_begin50:
	.loc	19 574 0 is_stmt 1
	.cfi_startproc
	pushq	%rax
	.cfi_def_cfa_offset 16
	movq	%rdi, (%rsp)
.Ltmp395:
	.loc	19 574 1 prologue_end
	callq	_ZN99_$LT$alloc..collections..btree..map..BTreeMap$LT$K$C$V$C$A$GT$$u20$as$u20$core..ops..drop..Drop$GT$4drop17h5c0823e1131f59eaE
	.loc	19 574 1 epilogue_begin is_stmt 0
	popq	%rax
	.cfi_def_cfa_offset 8
	retq
.Ltmp396:
.Lfunc_end50:
	.size	_ZN4core3ptr152drop_in_place$LT$alloc..collections..btree..map..BTreeMap$LT$std..ffi..os_str..OsString$C$core..option..Option$LT$std..ffi..os_str..OsString$GT$$GT$$GT$17h266ad7bb2639aad2E, .Lfunc_end50-_ZN4core3ptr152drop_in_place$LT$alloc..collections..btree..map..BTreeMap$LT$std..ffi..os_str..OsString$C$core..option..Option$LT$std..ffi..os_str..OsString$GT$$GT$$GT$17h266ad7bb2639aad2E
	.cfi_endproc

	.section	".text._ZN4core3ptr152drop_in_place$LT$alloc..collections..btree..map..IntoIter$LT$std..ffi..os_str..OsString$C$core..option..Option$LT$std..ffi..os_str..OsString$GT$$GT$$GT$17hd66772575af1d4ceE","ax",@progbits
	.p2align	4, 0x90
	.type	_ZN4core3ptr152drop_in_place$LT$alloc..collections..btree..map..IntoIter$LT$std..ffi..os_str..OsString$C$core..option..Option$LT$std..ffi..os_str..OsString$GT$$GT$$GT$17hd66772575af1d4ceE,@function
_ZN4core3ptr152drop_in_place$LT$alloc..collections..btree..map..IntoIter$LT$std..ffi..os_str..OsString$C$core..option..Option$LT$std..ffi..os_str..OsString$GT$$GT$$GT$17hd66772575af1d4ceE:
.Lfunc_begin51:
	.loc	19 574 0 is_stmt 1
	.cfi_startproc
	pushq	%rax
	.cfi_def_cfa_offset 16
	movq	%rdi, (%rsp)
.Ltmp397:
	.loc	19 574 1 prologue_end
	callq	_ZN99_$LT$alloc..collections..btree..map..IntoIter$LT$K$C$V$C$A$GT$$u20$as$u20$core..ops..drop..Drop$GT$4drop17h3f67adc3215a1e20E
	.loc	19 574 1 epilogue_begin is_stmt 0
	popq	%rax
	.cfi_def_cfa_offset 8
	retq
.Ltmp398:
.Lfunc_end51:
	.size	_ZN4core3ptr152drop_in_place$LT$alloc..collections..btree..map..IntoIter$LT$std..ffi..os_str..OsString$C$core..option..Option$LT$std..ffi..os_str..OsString$GT$$GT$$GT$17hd66772575af1d4ceE, .Lfunc_end51-_ZN4core3ptr152drop_in_place$LT$alloc..collections..btree..map..IntoIter$LT$std..ffi..os_str..OsString$C$core..option..Option$LT$std..ffi..os_str..OsString$GT$$GT$$GT$17hd66772575af1d4ceE
	.cfi_endproc

	.section	".text._ZN4core3ptr203drop_in_place$LT$dyn$u20$core..ops..function..FnMut$LT$$LP$$RP$$GT$$u2b$Output$u20$$u3d$$u20$core..result..Result$LT$$LP$$RP$$C$std..io..error..Error$GT$$u2b$core..marker..Sync$u2b$core..marker..Send$GT$17hd3cc7bf4223cabf1E","ax",@progbits
	.p2align	4, 0x90
	.type	_ZN4core3ptr203drop_in_place$LT$dyn$u20$core..ops..function..FnMut$LT$$LP$$RP$$GT$$u2b$Output$u20$$u3d$$u20$core..result..Result$LT$$LP$$RP$$C$std..io..error..Error$GT$$u2b$core..marker..Sync$u2b$core..marker..Send$GT$17hd3cc7bf4223cabf1E,@function
_ZN4core3ptr203drop_in_place$LT$dyn$u20$core..ops..function..FnMut$LT$$LP$$RP$$GT$$u2b$Output$u20$$u3d$$u20$core..result..Result$LT$$LP$$RP$$C$std..io..error..Error$GT$$u2b$core..marker..Sync$u2b$core..marker..Send$GT$17hd3cc7bf4223cabf1E:
.Lfunc_begin52:
	.loc	19 574 0 is_stmt 1
	.cfi_startproc
	subq	$40, %rsp
	.cfi_def_cfa_offset 48
	movq	%rdi, 8(%rsp)
	movq	%rdi, 24(%rsp)
	movq	%rsi, 32(%rsp)
.Ltmp399:
	.loc	19 574 1 prologue_end
	movq	(%rsi), %rax
	movq	%rax, 16(%rsp)
	cmpq	$0, %rax
	je	.LBB52_2
	.loc	19 0 1 is_stmt 0
	movq	16(%rsp), %rax
	movq	8(%rsp), %rdi
	.loc	19 574 1
	callq	*%rax
.LBB52_2:
	.loc	19 574 1 epilogue_begin
	addq	$40, %rsp
	.cfi_def_cfa_offset 8
	retq
.Ltmp400:
.Lfunc_end52:
	.size	_ZN4core3ptr203drop_in_place$LT$dyn$u20$core..ops..function..FnMut$LT$$LP$$RP$$GT$$u2b$Output$u20$$u3d$$u20$core..result..Result$LT$$LP$$RP$$C$std..io..error..Error$GT$$u2b$core..marker..Sync$u2b$core..marker..Send$GT$17hd3cc7bf4223cabf1E, .Lfunc_end52-_ZN4core3ptr203drop_in_place$LT$dyn$u20$core..ops..function..FnMut$LT$$LP$$RP$$GT$$u2b$Output$u20$$u3d$$u20$core..result..Result$LT$$LP$$RP$$C$std..io..error..Error$GT$$u2b$core..marker..Sync$u2b$core..marker..Send$GT$17hd3cc7bf4223cabf1E
	.cfi_endproc

	.section	".text._ZN4core3ptr228drop_in_place$LT$alloc..boxed..Box$LT$dyn$u20$core..ops..function..FnMut$LT$$LP$$RP$$GT$$u2b$Output$u20$$u3d$$u20$core..result..Result$LT$$LP$$RP$$C$std..io..error..Error$GT$$u2b$core..marker..Sync$u2b$core..marker..Send$GT$$GT$17hd2af039dd53852a8E","ax",@progbits
	.p2align	4, 0x90
	.type	_ZN4core3ptr228drop_in_place$LT$alloc..boxed..Box$LT$dyn$u20$core..ops..function..FnMut$LT$$LP$$RP$$GT$$u2b$Output$u20$$u3d$$u20$core..result..Result$LT$$LP$$RP$$C$std..io..error..Error$GT$$u2b$core..marker..Sync$u2b$core..marker..Send$GT$$GT$17hd2af039dd53852a8E,@function
_ZN4core3ptr228drop_in_place$LT$alloc..boxed..Box$LT$dyn$u20$core..ops..function..FnMut$LT$$LP$$RP$$GT$$u2b$Output$u20$$u3d$$u20$core..result..Result$LT$$LP$$RP$$C$std..io..error..Error$GT$$u2b$core..marker..Sync$u2b$core..marker..Send$GT$$GT$17hd2af039dd53852a8E:
.Lfunc_begin53:
	.loc	19 574 0 is_stmt 1
	.cfi_startproc
	.cfi_personality 155, DW.ref.rust_eh_personality
	.cfi_lsda 27, .Lexception9
	subq	$56, %rsp
	.cfi_def_cfa_offset 64
	movq	%rdi, 8(%rsp)
	movq	%rdi, 32(%rsp)
.Ltmp407:
	.loc	19 574 1 prologue_end
	movq	(%rdi), %rax
	movq	%rax, 16(%rsp)
	movq	8(%rdi), %rax
	movq	(%rax), %rax
	movq	%rax, 24(%rsp)
	cmpq	$0, %rax
	je	.LBB53_2
.Ltmp401:
	.loc	19 0 1 is_stmt 0
	movq	24(%rsp), %rax
	movq	16(%rsp), %rdi
	.loc	19 574 1
	callq	*%rax
.Ltmp402:
	jmp	.LBB53_2
.LBB53_2:
	.loc	19 0 1
	movq	8(%rsp), %rdi
	.loc	19 574 1
	callq	_ZN72_$LT$alloc..boxed..Box$LT$T$C$A$GT$$u20$as$u20$core..ops..drop..Drop$GT$4drop17h0411886ef956cca4E
	.loc	19 574 1 epilogue_begin
	addq	$56, %rsp
	.cfi_def_cfa_offset 8
	retq
.LBB53_3:
	.cfi_def_cfa_offset 64
.Ltmp404:
	.loc	19 0 1
	movq	8(%rsp), %rdi
	.loc	19 574 1
	callq	_ZN72_$LT$alloc..boxed..Box$LT$T$C$A$GT$$u20$as$u20$core..ops..drop..Drop$GT$4drop17h0411886ef956cca4E
.Ltmp405:
	jmp	.LBB53_6
.LBB53_4:
.Ltmp403:
	.loc	19 0 1
	movq	%rax, %rcx
	movl	%edx, %eax
	movq	%rcx, 40(%rsp)
	movl	%eax, 48(%rsp)
	jmp	.LBB53_3
.LBB53_5:
.Ltmp406:
	.loc	19 574 1
	movq	_ZN4core9panicking16panic_in_cleanup17hddc1b09eaad4daa3E@GOTPCREL(%rip), %rax
	callq	*%rax
.LBB53_6:
	movq	40(%rsp), %rdi
	callq	_Unwind_Resume@PLT
.Ltmp408:
.Lfunc_end53:
	.size	_ZN4core3ptr228drop_in_place$LT$alloc..boxed..Box$LT$dyn$u20$core..ops..function..FnMut$LT$$LP$$RP$$GT$$u2b$Output$u20$$u3d$$u20$core..result..Result$LT$$LP$$RP$$C$std..io..error..Error$GT$$u2b$core..marker..Sync$u2b$core..marker..Send$GT$$GT$17hd2af039dd53852a8E, .Lfunc_end53-_ZN4core3ptr228drop_in_place$LT$alloc..boxed..Box$LT$dyn$u20$core..ops..function..FnMut$LT$$LP$$RP$$GT$$u2b$Output$u20$$u3d$$u20$core..result..Result$LT$$LP$$RP$$C$std..io..error..Error$GT$$u2b$core..marker..Sync$u2b$core..marker..Send$GT$$GT$17hd2af039dd53852a8E
	.cfi_endproc
	.section	".gcc_except_table._ZN4core3ptr228drop_in_place$LT$alloc..boxed..Box$LT$dyn$u20$core..ops..function..FnMut$LT$$LP$$RP$$GT$$u2b$Output$u20$$u3d$$u20$core..result..Result$LT$$LP$$RP$$C$std..io..error..Error$GT$$u2b$core..marker..Sync$u2b$core..marker..Send$GT$$GT$17hd2af039dd53852a8E","a",@progbits
	.p2align	2, 0x0
GCC_except_table53:
.Lexception9:
	.byte	255
	.byte	155
	.uleb128 .Lttbase3-.Lttbaseref3
.Lttbaseref3:
	.byte	1
	.uleb128 .Lcst_end9-.Lcst_begin9
.Lcst_begin9:
	.uleb128 .Ltmp401-.Lfunc_begin53
	.uleb128 .Ltmp402-.Ltmp401
	.uleb128 .Ltmp403-.Lfunc_begin53
	.byte	0
	.uleb128 .Ltmp402-.Lfunc_begin53
	.uleb128 .Ltmp404-.Ltmp402
	.byte	0
	.byte	0
	.uleb128 .Ltmp404-.Lfunc_begin53
	.uleb128 .Ltmp405-.Ltmp404
	.uleb128 .Ltmp406-.Lfunc_begin53
	.byte	1
	.uleb128 .Ltmp405-.Lfunc_begin53
	.uleb128 .Lfunc_end53-.Ltmp405
	.byte	0
	.byte	0
.Lcst_end9:
	.byte	127
	.byte	0
	.p2align	2, 0x0
.Lttbase3:
	.byte	0
	.p2align	2, 0x0

	.section	".text._ZN4core3ptr238drop_in_place$LT$$u5b$alloc..boxed..Box$LT$dyn$u20$core..ops..function..FnMut$LT$$LP$$RP$$GT$$u2b$Output$u20$$u3d$$u20$core..result..Result$LT$$LP$$RP$$C$std..io..error..Error$GT$$u2b$core..marker..Sync$u2b$core..marker..Send$GT$$u5d$$GT$17hc2127320e57fb37fE","ax",@progbits
	.p2align	4, 0x90
	.type	_ZN4core3ptr238drop_in_place$LT$$u5b$alloc..boxed..Box$LT$dyn$u20$core..ops..function..FnMut$LT$$LP$$RP$$GT$$u2b$Output$u20$$u3d$$u20$core..result..Result$LT$$LP$$RP$$C$std..io..error..Error$GT$$u2b$core..marker..Sync$u2b$core..marker..Send$GT$$u5d$$GT$17hc2127320e57fb37fE,@function
_ZN4core3ptr238drop_in_place$LT$$u5b$alloc..boxed..Box$LT$dyn$u20$core..ops..function..FnMut$LT$$LP$$RP$$GT$$u2b$Output$u20$$u3d$$u20$core..result..Result$LT$$LP$$RP$$C$std..io..error..Error$GT$$u2b$core..marker..Sync$u2b$core..marker..Send$GT$$u5d$$GT$17hc2127320e57fb37fE:
.Lfunc_begin54:
	.loc	19 574 0 is_stmt 1
	.cfi_startproc
	.cfi_personality 155, DW.ref.rust_eh_personality
	.cfi_lsda 27, .Lexception10
	subq	$56, %rsp
	.cfi_def_cfa_offset 64
	movq	%rdi, (%rsp)
	movq	%rsi, 8(%rsp)
	movq	%rdi, 24(%rsp)
	movq	%rsi, 32(%rsp)
.Ltmp415:
	.loc	19 574 1 prologue_end
	movq	$0, 16(%rsp)
.LBB54_1:
	.loc	19 0 1 is_stmt 0
	movq	8(%rsp), %rax
	.loc	19 574 1
	cmpq	%rax, 16(%rsp)
	je	.LBB54_3
	.loc	19 0 1
	movq	(%rsp), %rdi
	.loc	19 574 1
	movq	16(%rsp), %rax
	movq	%rax, %rcx
	shlq	$4, %rcx
	addq	%rcx, %rdi
	incq	%rax
	movq	%rax, 16(%rsp)
.Ltmp409:
	callq	_ZN4core3ptr228drop_in_place$LT$alloc..boxed..Box$LT$dyn$u20$core..ops..function..FnMut$LT$$LP$$RP$$GT$$u2b$Output$u20$$u3d$$u20$core..result..Result$LT$$LP$$RP$$C$std..io..error..Error$GT$$u2b$core..marker..Sync$u2b$core..marker..Send$GT$$GT$17hd2af039dd53852a8E
.Ltmp410:
	jmp	.LBB54_1
.LBB54_3:
	.loc	19 574 1 epilogue_begin
	addq	$56, %rsp
	.cfi_def_cfa_offset 8
	retq
.LBB54_4:
	.cfi_def_cfa_offset 64
	.loc	19 0 1
	movq	8(%rsp), %rax
	.loc	19 574 1
	cmpq	%rax, 16(%rsp)
	je	.LBB54_7
	jmp	.LBB54_6
.LBB54_5:
.Ltmp411:
	.loc	19 0 1
	movq	%rax, %rcx
	movl	%edx, %eax
	movq	%rcx, 40(%rsp)
	movl	%eax, 48(%rsp)
	jmp	.LBB54_4
.LBB54_6:
	movq	(%rsp), %rdi
	.loc	19 574 1
	movq	16(%rsp), %rax
	movq	%rax, %rcx
	shlq	$4, %rcx
	addq	%rcx, %rdi
	incq	%rax
	movq	%rax, 16(%rsp)
.Ltmp412:
	callq	_ZN4core3ptr228drop_in_place$LT$alloc..boxed..Box$LT$dyn$u20$core..ops..function..FnMut$LT$$LP$$RP$$GT$$u2b$Output$u20$$u3d$$u20$core..result..Result$LT$$LP$$RP$$C$std..io..error..Error$GT$$u2b$core..marker..Sync$u2b$core..marker..Send$GT$$GT$17hd2af039dd53852a8E
.Ltmp413:
	jmp	.LBB54_4
.LBB54_7:
	movq	40(%rsp), %rdi
	callq	_Unwind_Resume@PLT
.LBB54_8:
.Ltmp414:
	movq	_ZN4core9panicking16panic_in_cleanup17hddc1b09eaad4daa3E@GOTPCREL(%rip), %rax
	callq	*%rax
.Ltmp416:
.Lfunc_end54:
	.size	_ZN4core3ptr238drop_in_place$LT$$u5b$alloc..boxed..Box$LT$dyn$u20$core..ops..function..FnMut$LT$$LP$$RP$$GT$$u2b$Output$u20$$u3d$$u20$core..result..Result$LT$$LP$$RP$$C$std..io..error..Error$GT$$u2b$core..marker..Sync$u2b$core..marker..Send$GT$$u5d$$GT$17hc2127320e57fb37fE, .Lfunc_end54-_ZN4core3ptr238drop_in_place$LT$$u5b$alloc..boxed..Box$LT$dyn$u20$core..ops..function..FnMut$LT$$LP$$RP$$GT$$u2b$Output$u20$$u3d$$u20$core..result..Result$LT$$LP$$RP$$C$std..io..error..Error$GT$$u2b$core..marker..Sync$u2b$core..marker..Send$GT$$u5d$$GT$17hc2127320e57fb37fE
	.cfi_endproc
	.section	".gcc_except_table._ZN4core3ptr238drop_in_place$LT$$u5b$alloc..boxed..Box$LT$dyn$u20$core..ops..function..FnMut$LT$$LP$$RP$$GT$$u2b$Output$u20$$u3d$$u20$core..result..Result$LT$$LP$$RP$$C$std..io..error..Error$GT$$u2b$core..marker..Sync$u2b$core..marker..Send$GT$$u5d$$GT$17hc2127320e57fb37fE","a",@progbits
	.p2align	2, 0x0
GCC_except_table54:
.Lexception10:
	.byte	255
	.byte	155
	.uleb128 .Lttbase4-.Lttbaseref4
.Lttbaseref4:
	.byte	1
	.uleb128 .Lcst_end10-.Lcst_begin10
.Lcst_begin10:
	.uleb128 .Ltmp409-.Lfunc_begin54
	.uleb128 .Ltmp410-.Ltmp409
	.uleb128 .Ltmp411-.Lfunc_begin54
	.byte	0
	.uleb128 .Ltmp412-.Lfunc_begin54
	.uleb128 .Ltmp413-.Ltmp412
	.uleb128 .Ltmp414-.Lfunc_begin54
	.byte	1
	.uleb128 .Ltmp413-.Lfunc_begin54
	.uleb128 .Lfunc_end54-.Ltmp413
	.byte	0
	.byte	0
.Lcst_end10:
	.byte	127
	.byte	0
	.p2align	2, 0x0
.Lttbase4:
	.byte	0
	.p2align	2, 0x0

	.section	".text._ZN4core3ptr250drop_in_place$LT$$LT$alloc..collections..btree..map..IntoIter$LT$K$C$V$C$A$GT$$u20$as$u20$core..ops..drop..Drop$GT$..drop..DropGuard$LT$std..ffi..os_str..OsString$C$core..option..Option$LT$std..ffi..os_str..OsString$GT$$C$alloc..alloc..Global$GT$$GT$17heaede61438237b09E","ax",@progbits
	.p2align	4, 0x90
	.type	_ZN4core3ptr250drop_in_place$LT$$LT$alloc..collections..btree..map..IntoIter$LT$K$C$V$C$A$GT$$u20$as$u20$core..ops..drop..Drop$GT$..drop..DropGuard$LT$std..ffi..os_str..OsString$C$core..option..Option$LT$std..ffi..os_str..OsString$GT$$C$alloc..alloc..Global$GT$$GT$17heaede61438237b09E,@function
_ZN4core3ptr250drop_in_place$LT$$LT$alloc..collections..btree..map..IntoIter$LT$K$C$V$C$A$GT$$u20$as$u20$core..ops..drop..Drop$GT$..drop..DropGuard$LT$std..ffi..os_str..OsString$C$core..option..Option$LT$std..ffi..os_str..OsString$GT$$C$alloc..alloc..Global$GT$$GT$17heaede61438237b09E:
.Lfunc_begin55:
	.loc	19 574 0 is_stmt 1
	.cfi_startproc
	pushq	%rax
	.cfi_def_cfa_offset 16
	movq	%rdi, (%rsp)
.Ltmp417:
	.loc	19 574 1 prologue_end
	callq	_ZN174_$LT$$LT$alloc..collections..btree..map..IntoIter$LT$K$C$V$C$A$GT$$u20$as$u20$core..ops..drop..Drop$GT$..drop..DropGuard$LT$K$C$V$C$A$GT$$u20$as$u20$core..ops..drop..Drop$GT$4drop17hccc5e1f5868e8d63E
	.loc	19 574 1 epilogue_begin is_stmt 0
	popq	%rax
	.cfi_def_cfa_offset 8
	retq
.Ltmp418:
.Lfunc_end55:
	.size	_ZN4core3ptr250drop_in_place$LT$$LT$alloc..collections..btree..map..IntoIter$LT$K$C$V$C$A$GT$$u20$as$u20$core..ops..drop..Drop$GT$..drop..DropGuard$LT$std..ffi..os_str..OsString$C$core..option..Option$LT$std..ffi..os_str..OsString$GT$$C$alloc..alloc..Global$GT$$GT$17heaede61438237b09E, .Lfunc_end55-_ZN4core3ptr250drop_in_place$LT$$LT$alloc..collections..btree..map..IntoIter$LT$K$C$V$C$A$GT$$u20$as$u20$core..ops..drop..Drop$GT$..drop..DropGuard$LT$std..ffi..os_str..OsString$C$core..option..Option$LT$std..ffi..os_str..OsString$GT$$C$alloc..alloc..Global$GT$$GT$17heaede61438237b09E
	.cfi_endproc

	.section	".text._ZN4core3ptr251drop_in_place$LT$alloc..vec..Vec$LT$alloc..boxed..Box$LT$dyn$u20$core..ops..function..FnMut$LT$$LP$$RP$$GT$$u2b$Output$u20$$u3d$$u20$core..result..Result$LT$$LP$$RP$$C$std..io..error..Error$GT$$u2b$core..marker..Sync$u2b$core..marker..Send$GT$$GT$$GT$17hc7f39c161c2e773fE","ax",@progbits
	.p2align	4, 0x90
	.type	_ZN4core3ptr251drop_in_place$LT$alloc..vec..Vec$LT$alloc..boxed..Box$LT$dyn$u20$core..ops..function..FnMut$LT$$LP$$RP$$GT$$u2b$Output$u20$$u3d$$u20$core..result..Result$LT$$LP$$RP$$C$std..io..error..Error$GT$$u2b$core..marker..Sync$u2b$core..marker..Send$GT$$GT$$GT$17hc7f39c161c2e773fE,@function
_ZN4core3ptr251drop_in_place$LT$alloc..vec..Vec$LT$alloc..boxed..Box$LT$dyn$u20$core..ops..function..FnMut$LT$$LP$$RP$$GT$$u2b$Output$u20$$u3d$$u20$core..result..Result$LT$$LP$$RP$$C$std..io..error..Error$GT$$u2b$core..marker..Sync$u2b$core..marker..Send$GT$$GT$$GT$17hc7f39c161c2e773fE:
.Lfunc_begin56:
	.loc	19 574 0 is_stmt 1
	.cfi_startproc
	.cfi_personality 155, DW.ref.rust_eh_personality
	.cfi_lsda 27, .Lexception11
	subq	$40, %rsp
	.cfi_def_cfa_offset 48
	movq	%rdi, 8(%rsp)
	movq	%rdi, 16(%rsp)
.Ltmp419:
.Ltmp425:
	.loc	19 574 1 prologue_end
	callq	_ZN70_$LT$alloc..vec..Vec$LT$T$C$A$GT$$u20$as$u20$core..ops..drop..Drop$GT$4drop17ha5a57a0fad8833c9E
.Ltmp420:
	jmp	.LBB56_3
.LBB56_1:
.Ltmp422:
	.loc	19 0 1 is_stmt 0
	movq	8(%rsp), %rdi
	.loc	19 574 1
	callq	_ZN4core3ptr258drop_in_place$LT$alloc..raw_vec..RawVec$LT$alloc..boxed..Box$LT$dyn$u20$core..ops..function..FnMut$LT$$LP$$RP$$GT$$u2b$Output$u20$$u3d$$u20$core..result..Result$LT$$LP$$RP$$C$std..io..error..Error$GT$$u2b$core..marker..Sync$u2b$core..marker..Send$GT$$GT$$GT$17h09cd1ea524b2cba5E
.Ltmp423:
	jmp	.LBB56_5
.LBB56_2:
.Ltmp421:
	.loc	19 0 1
	movq	%rax, %rcx
	movl	%edx, %eax
	movq	%rcx, 24(%rsp)
	movl	%eax, 32(%rsp)
	jmp	.LBB56_1
.LBB56_3:
	movq	8(%rsp), %rdi
	.loc	19 574 1
	callq	_ZN4core3ptr258drop_in_place$LT$alloc..raw_vec..RawVec$LT$alloc..boxed..Box$LT$dyn$u20$core..ops..function..FnMut$LT$$LP$$RP$$GT$$u2b$Output$u20$$u3d$$u20$core..result..Result$LT$$LP$$RP$$C$std..io..error..Error$GT$$u2b$core..marker..Sync$u2b$core..marker..Send$GT$$GT$$GT$17h09cd1ea524b2cba5E
	.loc	19 574 1 epilogue_begin
	addq	$40, %rsp
	.cfi_def_cfa_offset 8
	retq
.LBB56_4:
	.cfi_def_cfa_offset 48
.Ltmp424:
	movq	_ZN4core9panicking16panic_in_cleanup17hddc1b09eaad4daa3E@GOTPCREL(%rip), %rax
	callq	*%rax
.LBB56_5:
	movq	24(%rsp), %rdi
	callq	_Unwind_Resume@PLT
.Ltmp426:
.Lfunc_end56:
	.size	_ZN4core3ptr251drop_in_place$LT$alloc..vec..Vec$LT$alloc..boxed..Box$LT$dyn$u20$core..ops..function..FnMut$LT$$LP$$RP$$GT$$u2b$Output$u20$$u3d$$u20$core..result..Result$LT$$LP$$RP$$C$std..io..error..Error$GT$$u2b$core..marker..Sync$u2b$core..marker..Send$GT$$GT$$GT$17hc7f39c161c2e773fE, .Lfunc_end56-_ZN4core3ptr251drop_in_place$LT$alloc..vec..Vec$LT$alloc..boxed..Box$LT$dyn$u20$core..ops..function..FnMut$LT$$LP$$RP$$GT$$u2b$Output$u20$$u3d$$u20$core..result..Result$LT$$LP$$RP$$C$std..io..error..Error$GT$$u2b$core..marker..Sync$u2b$core..marker..Send$GT$$GT$$GT$17hc7f39c161c2e773fE
	.cfi_endproc
	.section	".gcc_except_table._ZN4core3ptr251drop_in_place$LT$alloc..vec..Vec$LT$alloc..boxed..Box$LT$dyn$u20$core..ops..function..FnMut$LT$$LP$$RP$$GT$$u2b$Output$u20$$u3d$$u20$core..result..Result$LT$$LP$$RP$$C$std..io..error..Error$GT$$u2b$core..marker..Sync$u2b$core..marker..Send$GT$$GT$$GT$17hc7f39c161c2e773fE","a",@progbits
	.p2align	2, 0x0
GCC_except_table56:
.Lexception11:
	.byte	255
	.byte	155
	.uleb128 .Lttbase5-.Lttbaseref5
.Lttbaseref5:
	.byte	1
	.uleb128 .Lcst_end11-.Lcst_begin11
.Lcst_begin11:
	.uleb128 .Ltmp419-.Lfunc_begin56
	.uleb128 .Ltmp420-.Ltmp419
	.uleb128 .Ltmp421-.Lfunc_begin56
	.byte	0
	.uleb128 .Ltmp422-.Lfunc_begin56
	.uleb128 .Ltmp423-.Ltmp422
	.uleb128 .Ltmp424-.Lfunc_begin56
	.byte	1
	.uleb128 .Ltmp423-.Lfunc_begin56
	.uleb128 .Lfunc_end56-.Ltmp423
	.byte	0
	.byte	0
.Lcst_end11:
	.byte	127
	.byte	0
	.p2align	2, 0x0
.Lttbase5:
	.byte	0
	.p2align	2, 0x0

	.section	".text._ZN4core3ptr258drop_in_place$LT$alloc..raw_vec..RawVec$LT$alloc..boxed..Box$LT$dyn$u20$core..ops..function..FnMut$LT$$LP$$RP$$GT$$u2b$Output$u20$$u3d$$u20$core..result..Result$LT$$LP$$RP$$C$std..io..error..Error$GT$$u2b$core..marker..Sync$u2b$core..marker..Send$GT$$GT$$GT$17h09cd1ea524b2cba5E","ax",@progbits
	.p2align	4, 0x90
	.type	_ZN4core3ptr258drop_in_place$LT$alloc..raw_vec..RawVec$LT$alloc..boxed..Box$LT$dyn$u20$core..ops..function..FnMut$LT$$LP$$RP$$GT$$u2b$Output$u20$$u3d$$u20$core..result..Result$LT$$LP$$RP$$C$std..io..error..Error$GT$$u2b$core..marker..Sync$u2b$core..marker..Send$GT$$GT$$GT$17h09cd1ea524b2cba5E,@function
_ZN4core3ptr258drop_in_place$LT$alloc..raw_vec..RawVec$LT$alloc..boxed..Box$LT$dyn$u20$core..ops..function..FnMut$LT$$LP$$RP$$GT$$u2b$Output$u20$$u3d$$u20$core..result..Result$LT$$LP$$RP$$C$std..io..error..Error$GT$$u2b$core..marker..Sync$u2b$core..marker..Send$GT$$GT$$GT$17h09cd1ea524b2cba5E:
.Lfunc_begin57:
	.loc	19 574 0 is_stmt 1
	.cfi_startproc
	pushq	%rax
	.cfi_def_cfa_offset 16
	movq	%rdi, (%rsp)
.Ltmp427:
	.loc	19 574 1 prologue_end
	callq	_ZN77_$LT$alloc..raw_vec..RawVec$LT$T$C$A$GT$$u20$as$u20$core..ops..drop..Drop$GT$4drop17h017ea36f860b1da7E
	.loc	19 574 1 epilogue_begin is_stmt 0
	popq	%rax
	.cfi_def_cfa_offset 8
	retq
.Ltmp428:
.Lfunc_end57:
	.size	_ZN4core3ptr258drop_in_place$LT$alloc..raw_vec..RawVec$LT$alloc..boxed..Box$LT$dyn$u20$core..ops..function..FnMut$LT$$LP$$RP$$GT$$u2b$Output$u20$$u3d$$u20$core..result..Result$LT$$LP$$RP$$C$std..io..error..Error$GT$$u2b$core..marker..Sync$u2b$core..marker..Send$GT$$GT$$GT$17h09cd1ea524b2cba5E, .Lfunc_end57-_ZN4core3ptr258drop_in_place$LT$alloc..raw_vec..RawVec$LT$alloc..boxed..Box$LT$dyn$u20$core..ops..function..FnMut$LT$$LP$$RP$$GT$$u2b$Output$u20$$u3d$$u20$core..result..Result$LT$$LP$$RP$$C$std..io..error..Error$GT$$u2b$core..marker..Sync$u2b$core..marker..Send$GT$$GT$$GT$17h09cd1ea524b2cba5E
	.cfi_endproc

	.section	".text._ZN4core3ptr33drop_in_place$LT$$RF$$LP$$RP$$GT$17hbb0c41b4f3b9ea42E","ax",@progbits
	.p2align	4, 0x90
	.type	_ZN4core3ptr33drop_in_place$LT$$RF$$LP$$RP$$GT$17hbb0c41b4f3b9ea42E,@function
_ZN4core3ptr33drop_in_place$LT$$RF$$LP$$RP$$GT$17hbb0c41b4f3b9ea42E:
.Lfunc_begin58:
	.loc	19 574 0 is_stmt 1
	.cfi_startproc
	movq	%rdi, -8(%rsp)
.Ltmp429:
	.loc	19 574 1 prologue_end
	retq
.Ltmp430:
.Lfunc_end58:
	.size	_ZN4core3ptr33drop_in_place$LT$$RF$$LP$$RP$$GT$17hbb0c41b4f3b9ea42E, .Lfunc_end58-_ZN4core3ptr33drop_in_place$LT$$RF$$LP$$RP$$GT$17hbb0c41b4f3b9ea42E
	.cfi_endproc

	.section	".text._ZN4core3ptr39drop_in_place$LT$std..env..VarError$GT$17h435a5db18f83f82aE","ax",@progbits
	.p2align	4, 0x90
	.type	_ZN4core3ptr39drop_in_place$LT$std..env..VarError$GT$17h435a5db18f83f82aE,@function
_ZN4core3ptr39drop_in_place$LT$std..env..VarError$GT$17h435a5db18f83f82aE:
.Lfunc_begin59:
	.loc	19 574 0
	.cfi_startproc
	subq	$24, %rsp
	.cfi_def_cfa_offset 32
	movq	%rdi, 8(%rsp)
	movq	%rdi, 16(%rsp)
.Ltmp431:
	.loc	19 574 1 prologue_end
	movabsq	$-9223372036854775808, %rdx
	movl	$1, %eax
	xorl	%ecx, %ecx
	cmpq	%rdx, (%rdi)
	cmoveq	%rcx, %rax
	cmpq	$0, %rax
	jne	.LBB59_2
.LBB59_1:
	.loc	19 574 1 epilogue_begin is_stmt 0
	addq	$24, %rsp
	.cfi_def_cfa_offset 8
	retq
.LBB59_2:
	.cfi_def_cfa_offset 32
	.loc	19 0 1
	movq	8(%rsp), %rdi
	.loc	19 574 1
	callq	_ZN4core3ptr47drop_in_place$LT$std..ffi..os_str..OsString$GT$17hb0a52be10d38c602E
	jmp	.LBB59_1
.Ltmp432:
.Lfunc_end59:
	.size	_ZN4core3ptr39drop_in_place$LT$std..env..VarError$GT$17h435a5db18f83f82aE, .Lfunc_end59-_ZN4core3ptr39drop_in_place$LT$std..env..VarError$GT$17h435a5db18f83f82aE
	.cfi_endproc

	.section	".text._ZN4core3ptr41drop_in_place$LT$std..process..Output$GT$17h64c61c9e72a1f27eE","ax",@progbits
	.p2align	4, 0x90
	.type	_ZN4core3ptr41drop_in_place$LT$std..process..Output$GT$17h64c61c9e72a1f27eE,@function
_ZN4core3ptr41drop_in_place$LT$std..process..Output$GT$17h64c61c9e72a1f27eE:
.Lfunc_begin60:
	.loc	19 574 0 is_stmt 1
	.cfi_startproc
	.cfi_personality 155, DW.ref.rust_eh_personality
	.cfi_lsda 27, .Lexception12
	subq	$40, %rsp
	.cfi_def_cfa_offset 48
	movq	%rdi, 8(%rsp)
	movq	%rdi, 16(%rsp)
.Ltmp433:
.Ltmp439:
	.loc	19 574 1 prologue_end
	callq	_ZN4core3ptr46drop_in_place$LT$alloc..vec..Vec$LT$u8$GT$$GT$17h9d3b199035e277f5E
.Ltmp434:
	jmp	.LBB60_3
.LBB60_1:
	.loc	19 0 1 is_stmt 0
	movq	8(%rsp), %rdi
	.loc	19 574 1
	addq	$24, %rdi
.Ltmp436:
	callq	_ZN4core3ptr46drop_in_place$LT$alloc..vec..Vec$LT$u8$GT$$GT$17h9d3b199035e277f5E
.Ltmp437:
	jmp	.LBB60_5
.LBB60_2:
.Ltmp435:
	.loc	19 0 1
	movq	%rax, %rcx
	movl	%edx, %eax
	movq	%rcx, 24(%rsp)
	movl	%eax, 32(%rsp)
	jmp	.LBB60_1
.LBB60_3:
	movq	8(%rsp), %rdi
	.loc	19 574 1
	addq	$24, %rdi
	callq	_ZN4core3ptr46drop_in_place$LT$alloc..vec..Vec$LT$u8$GT$$GT$17h9d3b199035e277f5E
	.loc	19 574 1 epilogue_begin
	addq	$40, %rsp
	.cfi_def_cfa_offset 8
	retq
.LBB60_4:
	.cfi_def_cfa_offset 48
.Ltmp438:
	movq	_ZN4core9panicking16panic_in_cleanup17hddc1b09eaad4daa3E@GOTPCREL(%rip), %rax
	callq	*%rax
.LBB60_5:
	movq	24(%rsp), %rdi
	callq	_Unwind_Resume@PLT
.Ltmp440:
.Lfunc_end60:
	.size	_ZN4core3ptr41drop_in_place$LT$std..process..Output$GT$17h64c61c9e72a1f27eE, .Lfunc_end60-_ZN4core3ptr41drop_in_place$LT$std..process..Output$GT$17h64c61c9e72a1f27eE
	.cfi_endproc
	.section	".gcc_except_table._ZN4core3ptr41drop_in_place$LT$std..process..Output$GT$17h64c61c9e72a1f27eE","a",@progbits
	.p2align	2, 0x0
GCC_except_table60:
.Lexception12:
	.byte	255
	.byte	155
	.uleb128 .Lttbase6-.Lttbaseref6
.Lttbaseref6:
	.byte	1
	.uleb128 .Lcst_end12-.Lcst_begin12
.Lcst_begin12:
	.uleb128 .Ltmp433-.Lfunc_begin60
	.uleb128 .Ltmp434-.Ltmp433
	.uleb128 .Ltmp435-.Lfunc_begin60
	.byte	0
	.uleb128 .Ltmp436-.Lfunc_begin60
	.uleb128 .Ltmp437-.Ltmp436
	.uleb128 .Ltmp438-.Lfunc_begin60
	.byte	1
	.uleb128 .Ltmp437-.Lfunc_begin60
	.uleb128 .Lfunc_end60-.Ltmp437
	.byte	0
	.byte	0
.Lcst_end12:
	.byte	127
	.byte	0
	.p2align	2, 0x0
.Lttbase6:
	.byte	0
	.p2align	2, 0x0

	.section	".text._ZN4core3ptr42drop_in_place$LT$alloc..string..String$GT$17h7e3bcb296f93bb25E","ax",@progbits
	.p2align	4, 0x90
	.type	_ZN4core3ptr42drop_in_place$LT$alloc..string..String$GT$17h7e3bcb296f93bb25E,@function
_ZN4core3ptr42drop_in_place$LT$alloc..string..String$GT$17h7e3bcb296f93bb25E:
.Lfunc_begin61:
	.loc	19 574 0 is_stmt 1
	.cfi_startproc
	pushq	%rax
	.cfi_def_cfa_offset 16
	movq	%rdi, (%rsp)
.Ltmp441:
	.loc	19 574 1 prologue_end
	callq	_ZN4core3ptr46drop_in_place$LT$alloc..vec..Vec$LT$u8$GT$$GT$17h9d3b199035e277f5E
	.loc	19 574 1 epilogue_begin is_stmt 0
	popq	%rax
	.cfi_def_cfa_offset 8
	retq
.Ltmp442:
.Lfunc_end61:
	.size	_ZN4core3ptr42drop_in_place$LT$alloc..string..String$GT$17h7e3bcb296f93bb25E, .Lfunc_end61-_ZN4core3ptr42drop_in_place$LT$alloc..string..String$GT$17h7e3bcb296f93bb25E
	.cfi_endproc

	.section	".text._ZN4core3ptr42drop_in_place$LT$std..io..error..Error$GT$17he275e50c8e3ddf93E","ax",@progbits
	.p2align	4, 0x90
	.type	_ZN4core3ptr42drop_in_place$LT$std..io..error..Error$GT$17he275e50c8e3ddf93E,@function
_ZN4core3ptr42drop_in_place$LT$std..io..error..Error$GT$17he275e50c8e3ddf93E:
.Lfunc_begin62:
	.loc	19 574 0 is_stmt 1
	.cfi_startproc
	pushq	%rax
	.cfi_def_cfa_offset 16
	movq	%rdi, (%rsp)
.Ltmp443:
	.loc	19 574 1 prologue_end
	callq	_ZN4core3ptr57drop_in_place$LT$std..io..error..repr_bitpacked..Repr$GT$17h9032afa80617ddb1E
	.loc	19 574 1 epilogue_begin is_stmt 0
	popq	%rax
	.cfi_def_cfa_offset 8
	retq
.Ltmp444:
.Lfunc_end62:
	.size	_ZN4core3ptr42drop_in_place$LT$std..io..error..Error$GT$17he275e50c8e3ddf93E, .Lfunc_end62-_ZN4core3ptr42drop_in_place$LT$std..io..error..Error$GT$17he275e50c8e3ddf93E
	.cfi_endproc

	.section	".text._ZN4core3ptr42drop_in_place$LT$std..process..Command$GT$17hb4e4018cc6bd8fd8E","ax",@progbits
	.p2align	4, 0x90
	.type	_ZN4core3ptr42drop_in_place$LT$std..process..Command$GT$17hb4e4018cc6bd8fd8E,@function
_ZN4core3ptr42drop_in_place$LT$std..process..Command$GT$17hb4e4018cc6bd8fd8E:
.Lfunc_begin63:
	.loc	19 574 0 is_stmt 1
	.cfi_startproc
	pushq	%rax
	.cfi_def_cfa_offset 16
	movq	%rdi, (%rsp)
.Ltmp445:
	.loc	19 574 1 prologue_end
	callq	_ZN4core3ptr74drop_in_place$LT$std..sys..pal..unix..process..process_common..Command$GT$17h2862a4bccf83454eE
	.loc	19 574 1 epilogue_begin is_stmt 0
	popq	%rax
	.cfi_def_cfa_offset 8
	retq
.Ltmp446:
.Lfunc_end63:
	.size	_ZN4core3ptr42drop_in_place$LT$std..process..Command$GT$17hb4e4018cc6bd8fd8E, .Lfunc_end63-_ZN4core3ptr42drop_in_place$LT$std..process..Command$GT$17hb4e4018cc6bd8fd8E
	.cfi_endproc

	.section	".text._ZN4core3ptr43drop_in_place$LT$std..io..error..Custom$GT$17h27ff28141545aa64E","ax",@progbits
	.p2align	4, 0x90
	.type	_ZN4core3ptr43drop_in_place$LT$std..io..error..Custom$GT$17h27ff28141545aa64E,@function
_ZN4core3ptr43drop_in_place$LT$std..io..error..Custom$GT$17h27ff28141545aa64E:
.Lfunc_begin64:
	.loc	19 574 0 is_stmt 1
	.cfi_startproc
	pushq	%rax
	.cfi_def_cfa_offset 16
	movq	%rdi, (%rsp)
.Ltmp447:
	.loc	19 574 1 prologue_end
	callq	_ZN4core3ptr118drop_in_place$LT$alloc..boxed..Box$LT$dyn$u20$core..error..Error$u2b$core..marker..Sync$u2b$core..marker..Send$GT$$GT$17h231974e10b1dccddE
	.loc	19 574 1 epilogue_begin is_stmt 0
	popq	%rax
	.cfi_def_cfa_offset 8
	retq
.Ltmp448:
.Lfunc_end64:
	.size	_ZN4core3ptr43drop_in_place$LT$std..io..error..Custom$GT$17h27ff28141545aa64E, .Lfunc_end64-_ZN4core3ptr43drop_in_place$LT$std..io..error..Custom$GT$17h27ff28141545aa64E
	.cfi_endproc

	.section	".text._ZN4core3ptr46drop_in_place$LT$alloc..vec..Vec$LT$u8$GT$$GT$17h9d3b199035e277f5E","ax",@progbits
	.p2align	4, 0x90
	.type	_ZN4core3ptr46drop_in_place$LT$alloc..vec..Vec$LT$u8$GT$$GT$17h9d3b199035e277f5E,@function
_ZN4core3ptr46drop_in_place$LT$alloc..vec..Vec$LT$u8$GT$$GT$17h9d3b199035e277f5E:
.Lfunc_begin65:
	.loc	19 574 0 is_stmt 1
	.cfi_startproc
	.cfi_personality 155, DW.ref.rust_eh_personality
	.cfi_lsda 27, .Lexception13
	subq	$40, %rsp
	.cfi_def_cfa_offset 48
	movq	%rdi, 8(%rsp)
	movq	%rdi, 16(%rsp)
.Ltmp449:
.Ltmp455:
	.loc	19 574 1 prologue_end
	movq	_ZN70_$LT$alloc..vec..Vec$LT$T$C$A$GT$$u20$as$u20$core..ops..drop..Drop$GT$4drop17hb8c2272cd6624092E@GOTPCREL(%rip), %rax
	callq	*%rax
.Ltmp450:
	jmp	.LBB65_3
.LBB65_1:
.Ltmp452:
	.loc	19 0 1 is_stmt 0
	movq	8(%rsp), %rdi
	.loc	19 574 1
	callq	_ZN4core3ptr53drop_in_place$LT$alloc..raw_vec..RawVec$LT$u8$GT$$GT$17h74e5745b89d55f2cE
.Ltmp453:
	jmp	.LBB65_5
.LBB65_2:
.Ltmp451:
	.loc	19 0 1
	movq	%rax, %rcx
	movl	%edx, %eax
	movq	%rcx, 24(%rsp)
	movl	%eax, 32(%rsp)
	jmp	.LBB65_1
.LBB65_3:
	movq	8(%rsp), %rdi
	.loc	19 574 1
	callq	_ZN4core3ptr53drop_in_place$LT$alloc..raw_vec..RawVec$LT$u8$GT$$GT$17h74e5745b89d55f2cE
	.loc	19 574 1 epilogue_begin
	addq	$40, %rsp
	.cfi_def_cfa_offset 8
	retq
.LBB65_4:
	.cfi_def_cfa_offset 48
.Ltmp454:
	movq	_ZN4core9panicking16panic_in_cleanup17hddc1b09eaad4daa3E@GOTPCREL(%rip), %rax
	callq	*%rax
.LBB65_5:
	movq	24(%rsp), %rdi
	callq	_Unwind_Resume@PLT
.Ltmp456:
.Lfunc_end65:
	.size	_ZN4core3ptr46drop_in_place$LT$alloc..vec..Vec$LT$u8$GT$$GT$17h9d3b199035e277f5E, .Lfunc_end65-_ZN4core3ptr46drop_in_place$LT$alloc..vec..Vec$LT$u8$GT$$GT$17h9d3b199035e277f5E
	.cfi_endproc
	.section	".gcc_except_table._ZN4core3ptr46drop_in_place$LT$alloc..vec..Vec$LT$u8$GT$$GT$17h9d3b199035e277f5E","a",@progbits
	.p2align	2, 0x0
GCC_except_table65:
.Lexception13:
	.byte	255
	.byte	155
	.uleb128 .Lttbase7-.Lttbaseref7
.Lttbaseref7:
	.byte	1
	.uleb128 .Lcst_end13-.Lcst_begin13
.Lcst_begin13:
	.uleb128 .Ltmp449-.Lfunc_begin65
	.uleb128 .Ltmp450-.Ltmp449
	.uleb128 .Ltmp451-.Lfunc_begin65
	.byte	0
	.uleb128 .Ltmp452-.Lfunc_begin65
	.uleb128 .Ltmp453-.Ltmp452
	.uleb128 .Ltmp454-.Lfunc_begin65
	.byte	1
	.uleb128 .Ltmp453-.Lfunc_begin65
	.uleb128 .Lfunc_end65-.Ltmp453
	.byte	0
	.byte	0
.Lcst_end13:
	.byte	127
	.byte	0
	.p2align	2, 0x0
.Lttbase7:
	.byte	0
	.p2align	2, 0x0

	.section	".text._ZN4core3ptr47drop_in_place$LT$alloc..ffi..c_str..CString$GT$17h701b409cc698c03cE","ax",@progbits
	.p2align	4, 0x90
	.type	_ZN4core3ptr47drop_in_place$LT$alloc..ffi..c_str..CString$GT$17h701b409cc698c03cE,@function
_ZN4core3ptr47drop_in_place$LT$alloc..ffi..c_str..CString$GT$17h701b409cc698c03cE:
.Lfunc_begin66:
	.loc	19 574 0 is_stmt 1
	.cfi_startproc
	.cfi_personality 155, DW.ref.rust_eh_personality
	.cfi_lsda 27, .Lexception14
	subq	$40, %rsp
	.cfi_def_cfa_offset 48
	movq	%rdi, 8(%rsp)
	movq	%rdi, 16(%rsp)
.Ltmp457:
.Ltmp463:
	.loc	19 574 1 prologue_end
	callq	_ZN68_$LT$alloc..ffi..c_str..CString$u20$as$u20$core..ops..drop..Drop$GT$4drop17h0e362a5c57505ea6E
.Ltmp458:
	jmp	.LBB66_3
.LBB66_1:
.Ltmp460:
	.loc	19 0 1 is_stmt 0
	movq	8(%rsp), %rdi
	.loc	19 574 1
	callq	_ZN4core3ptr58drop_in_place$LT$alloc..boxed..Box$LT$$u5b$u8$u5d$$GT$$GT$17h1986334a17011bffE
.Ltmp461:
	jmp	.LBB66_5
.LBB66_2:
.Ltmp459:
	.loc	19 0 1
	movq	%rax, %rcx
	movl	%edx, %eax
	movq	%rcx, 24(%rsp)
	movl	%eax, 32(%rsp)
	jmp	.LBB66_1
.LBB66_3:
	movq	8(%rsp), %rdi
	.loc	19 574 1
	callq	_ZN4core3ptr58drop_in_place$LT$alloc..boxed..Box$LT$$u5b$u8$u5d$$GT$$GT$17h1986334a17011bffE
	.loc	19 574 1 epilogue_begin
	addq	$40, %rsp
	.cfi_def_cfa_offset 8
	retq
.LBB66_4:
	.cfi_def_cfa_offset 48
.Ltmp462:
	movq	_ZN4core9panicking16panic_in_cleanup17hddc1b09eaad4daa3E@GOTPCREL(%rip), %rax
	callq	*%rax
.LBB66_5:
	movq	24(%rsp), %rdi
	callq	_Unwind_Resume@PLT
.Ltmp464:
.Lfunc_end66:
	.size	_ZN4core3ptr47drop_in_place$LT$alloc..ffi..c_str..CString$GT$17h701b409cc698c03cE, .Lfunc_end66-_ZN4core3ptr47drop_in_place$LT$alloc..ffi..c_str..CString$GT$17h701b409cc698c03cE
	.cfi_endproc
	.section	".gcc_except_table._ZN4core3ptr47drop_in_place$LT$alloc..ffi..c_str..CString$GT$17h701b409cc698c03cE","a",@progbits
	.p2align	2, 0x0
GCC_except_table66:
.Lexception14:
	.byte	255
	.byte	155
	.uleb128 .Lttbase8-.Lttbaseref8
.Lttbaseref8:
	.byte	1
	.uleb128 .Lcst_end14-.Lcst_begin14
.Lcst_begin14:
	.uleb128 .Ltmp457-.Lfunc_begin66
	.uleb128 .Ltmp458-.Ltmp457
	.uleb128 .Ltmp459-.Lfunc_begin66
	.byte	0
	.uleb128 .Ltmp460-.Lfunc_begin66
	.uleb128 .Ltmp461-.Ltmp460
	.uleb128 .Ltmp462-.Lfunc_begin66
	.byte	1
	.uleb128 .Ltmp461-.Lfunc_begin66
	.uleb128 .Lfunc_end66-.Ltmp461
	.byte	0
	.byte	0
.Lcst_end14:
	.byte	127
	.byte	0
	.p2align	2, 0x0
.Lttbase8:
	.byte	0
	.p2align	2, 0x0

	.section	".text._ZN4core3ptr47drop_in_place$LT$std..ffi..os_str..OsString$GT$17hb0a52be10d38c602E","ax",@progbits
	.p2align	4, 0x90
	.type	_ZN4core3ptr47drop_in_place$LT$std..ffi..os_str..OsString$GT$17hb0a52be10d38c602E,@function
_ZN4core3ptr47drop_in_place$LT$std..ffi..os_str..OsString$GT$17hb0a52be10d38c602E:
.Lfunc_begin67:
	.loc	19 574 0 is_stmt 1
	.cfi_startproc
	pushq	%rax
	.cfi_def_cfa_offset 16
	movq	%rdi, (%rsp)
.Ltmp465:
	.loc	19 574 1 prologue_end
	callq	_ZN4core3ptr49drop_in_place$LT$std..sys..os_str..bytes..Buf$GT$17h08719c1f2e33c02fE
	.loc	19 574 1 epilogue_begin is_stmt 0
	popq	%rax
	.cfi_def_cfa_offset 8
	retq
.Ltmp466:
.Lfunc_end67:
	.size	_ZN4core3ptr47drop_in_place$LT$std..ffi..os_str..OsString$GT$17hb0a52be10d38c602E, .Lfunc_end67-_ZN4core3ptr47drop_in_place$LT$std..ffi..os_str..OsString$GT$17hb0a52be10d38c602E
	.cfi_endproc

	.section	".text._ZN4core3ptr48drop_in_place$LT$std..os..fd..owned..OwnedFd$GT$17h75e35fcdf7b4cc4aE","ax",@progbits
	.p2align	4, 0x90
	.type	_ZN4core3ptr48drop_in_place$LT$std..os..fd..owned..OwnedFd$GT$17h75e35fcdf7b4cc4aE,@function
_ZN4core3ptr48drop_in_place$LT$std..os..fd..owned..OwnedFd$GT$17h75e35fcdf7b4cc4aE:
.Lfunc_begin68:
	.loc	19 574 0 is_stmt 1
	.cfi_startproc
	pushq	%rax
	.cfi_def_cfa_offset 16
	movq	%rdi, (%rsp)
.Ltmp467:
	.loc	19 574 1 prologue_end
	callq	_ZN69_$LT$std..os..fd..owned..OwnedFd$u20$as$u20$core..ops..drop..Drop$GT$4drop17h646b8afd42ebd090E
	.loc	19 574 1 epilogue_begin is_stmt 0
	popq	%rax
	.cfi_def_cfa_offset 8
	retq
.Ltmp468:
.Lfunc_end68:
	.size	_ZN4core3ptr48drop_in_place$LT$std..os..fd..owned..OwnedFd$GT$17h75e35fcdf7b4cc4aE, .Lfunc_end68-_ZN4core3ptr48drop_in_place$LT$std..os..fd..owned..OwnedFd$GT$17h75e35fcdf7b4cc4aE
	.cfi_endproc

	.section	".text._ZN4core3ptr49drop_in_place$LT$alloc..string..FromUtf8Error$GT$17h448f1838a8206121E","ax",@progbits
	.p2align	4, 0x90
	.type	_ZN4core3ptr49drop_in_place$LT$alloc..string..FromUtf8Error$GT$17h448f1838a8206121E,@function
_ZN4core3ptr49drop_in_place$LT$alloc..string..FromUtf8Error$GT$17h448f1838a8206121E:
.Lfunc_begin69:
	.loc	19 574 0 is_stmt 1
	.cfi_startproc
	pushq	%rax
	.cfi_def_cfa_offset 16
	movq	%rdi, (%rsp)
.Ltmp469:
	.loc	19 574 1 prologue_end
	callq	_ZN4core3ptr46drop_in_place$LT$alloc..vec..Vec$LT$u8$GT$$GT$17h9d3b199035e277f5E
	.loc	19 574 1 epilogue_begin is_stmt 0
	popq	%rax
	.cfi_def_cfa_offset 8
	retq
.Ltmp470:
.Lfunc_end69:
	.size	_ZN4core3ptr49drop_in_place$LT$alloc..string..FromUtf8Error$GT$17h448f1838a8206121E, .Lfunc_end69-_ZN4core3ptr49drop_in_place$LT$alloc..string..FromUtf8Error$GT$17h448f1838a8206121E
	.cfi_endproc

	.section	".text._ZN4core3ptr49drop_in_place$LT$std..sys..os_str..bytes..Buf$GT$17h08719c1f2e33c02fE","ax",@progbits
	.p2align	4, 0x90
	.type	_ZN4core3ptr49drop_in_place$LT$std..sys..os_str..bytes..Buf$GT$17h08719c1f2e33c02fE,@function
_ZN4core3ptr49drop_in_place$LT$std..sys..os_str..bytes..Buf$GT$17h08719c1f2e33c02fE:
.Lfunc_begin70:
	.loc	19 574 0 is_stmt 1
	.cfi_startproc
	pushq	%rax
	.cfi_def_cfa_offset 16
	movq	%rdi, (%rsp)
.Ltmp471:
	.loc	19 574 1 prologue_end
	callq	_ZN4core3ptr46drop_in_place$LT$alloc..vec..Vec$LT$u8$GT$$GT$17h9d3b199035e277f5E
	.loc	19 574 1 epilogue_begin is_stmt 0
	popq	%rax
	.cfi_def_cfa_offset 8
	retq
.Ltmp472:
.Lfunc_end70:
	.size	_ZN4core3ptr49drop_in_place$LT$std..sys..os_str..bytes..Buf$GT$17h08719c1f2e33c02fE, .Lfunc_end70-_ZN4core3ptr49drop_in_place$LT$std..sys..os_str..bytes..Buf$GT$17h08719c1f2e33c02fE
	.cfi_endproc

	.section	".text._ZN4core3ptr50drop_in_place$LT$alloc..borrow..Cow$LT$str$GT$$GT$17h52980392939b4a3aE","ax",@progbits
	.p2align	4, 0x90
	.type	_ZN4core3ptr50drop_in_place$LT$alloc..borrow..Cow$LT$str$GT$$GT$17h52980392939b4a3aE,@function
_ZN4core3ptr50drop_in_place$LT$alloc..borrow..Cow$LT$str$GT$$GT$17h52980392939b4a3aE:
.Lfunc_begin71:
	.loc	19 574 0 is_stmt 1
	.cfi_startproc
	subq	$24, %rsp
	.cfi_def_cfa_offset 32
	movq	%rdi, 8(%rsp)
	movq	%rdi, 16(%rsp)
.Ltmp473:
	.loc	19 574 1 prologue_end
	movabsq	$-9223372036854775808, %rdx
	movl	$1, %eax
	xorl	%ecx, %ecx
	cmpq	%rdx, (%rdi)
	cmoveq	%rcx, %rax
	cmpq	$0, %rax
	jne	.LBB71_2
.LBB71_1:
	.loc	19 574 1 epilogue_begin is_stmt 0
	addq	$24, %rsp
	.cfi_def_cfa_offset 8
	retq
.LBB71_2:
	.cfi_def_cfa_offset 32
	.loc	19 0 1
	movq	8(%rsp), %rdi
	.loc	19 574 1
	callq	_ZN4core3ptr42drop_in_place$LT$alloc..string..String$GT$17h7e3bcb296f93bb25E
	jmp	.LBB71_1
.Ltmp474:
.Lfunc_end71:
	.size	_ZN4core3ptr50drop_in_place$LT$alloc..borrow..Cow$LT$str$GT$$GT$17h52980392939b4a3aE, .Lfunc_end71-_ZN4core3ptr50drop_in_place$LT$alloc..borrow..Cow$LT$str$GT$$GT$17h52980392939b4a3aE
	.cfi_endproc

	.section	".text._ZN4core3ptr52drop_in_place$LT$core..num..error..ParseIntError$GT$17h6c77c6a05e7aa657E","ax",@progbits
	.p2align	4, 0x90
	.type	_ZN4core3ptr52drop_in_place$LT$core..num..error..ParseIntError$GT$17h6c77c6a05e7aa657E,@function
_ZN4core3ptr52drop_in_place$LT$core..num..error..ParseIntError$GT$17h6c77c6a05e7aa657E:
.Lfunc_begin72:
	.loc	19 574 0 is_stmt 1
	.cfi_startproc
	movq	%rdi, -8(%rsp)
.Ltmp475:
	.loc	19 574 1 prologue_end
	retq
.Ltmp476:
.Lfunc_end72:
	.size	_ZN4core3ptr52drop_in_place$LT$core..num..error..ParseIntError$GT$17h6c77c6a05e7aa657E, .Lfunc_end72-_ZN4core3ptr52drop_in_place$LT$core..num..error..ParseIntError$GT$17h6c77c6a05e7aa657E
	.cfi_endproc

	.section	".text._ZN4core3ptr53drop_in_place$LT$alloc..raw_vec..RawVec$LT$u8$GT$$GT$17h74e5745b89d55f2cE","ax",@progbits
	.p2align	4, 0x90
	.type	_ZN4core3ptr53drop_in_place$LT$alloc..raw_vec..RawVec$LT$u8$GT$$GT$17h74e5745b89d55f2cE,@function
_ZN4core3ptr53drop_in_place$LT$alloc..raw_vec..RawVec$LT$u8$GT$$GT$17h74e5745b89d55f2cE:
.Lfunc_begin73:
	.loc	19 574 0
	.cfi_startproc
	pushq	%rax
	.cfi_def_cfa_offset 16
	movq	%rdi, (%rsp)
.Ltmp477:
	.loc	19 574 1 prologue_end
	callq	*_ZN77_$LT$alloc..raw_vec..RawVec$LT$T$C$A$GT$$u20$as$u20$core..ops..drop..Drop$GT$4drop17h077ee2decf6fd162E@GOTPCREL(%rip)
	.loc	19 574 1 epilogue_begin is_stmt 0
	popq	%rax
	.cfi_def_cfa_offset 8
	retq
.Ltmp478:
.Lfunc_end73:
	.size	_ZN4core3ptr53drop_in_place$LT$alloc..raw_vec..RawVec$LT$u8$GT$$GT$17h74e5745b89d55f2cE, .Lfunc_end73-_ZN4core3ptr53drop_in_place$LT$alloc..raw_vec..RawVec$LT$u8$GT$$GT$17h74e5745b89d55f2cE
	.cfi_endproc

	.section	".text._ZN4core3ptr54drop_in_place$LT$core..num..error..TryFromIntError$GT$17h211059bd1afbd14eE","ax",@progbits
	.p2align	4, 0x90
	.type	_ZN4core3ptr54drop_in_place$LT$core..num..error..TryFromIntError$GT$17h211059bd1afbd14eE,@function
_ZN4core3ptr54drop_in_place$LT$core..num..error..TryFromIntError$GT$17h211059bd1afbd14eE:
.Lfunc_begin74:
	.loc	19 574 0 is_stmt 1
	.cfi_startproc
	movq	%rdi, -8(%rsp)
.Ltmp479:
	.loc	19 574 1 prologue_end
	retq
.Ltmp480:
.Lfunc_end74:
	.size	_ZN4core3ptr54drop_in_place$LT$core..num..error..TryFromIntError$GT$17h211059bd1afbd14eE, .Lfunc_end74-_ZN4core3ptr54drop_in_place$LT$core..num..error..TryFromIntError$GT$17h211059bd1afbd14eE
	.cfi_endproc

	.section	".text._ZN4core3ptr54drop_in_place$LT$std..sys..pal..unix..fd..FileDesc$GT$17h1b9e3cddc47e8724E","ax",@progbits
	.p2align	4, 0x90
	.type	_ZN4core3ptr54drop_in_place$LT$std..sys..pal..unix..fd..FileDesc$GT$17h1b9e3cddc47e8724E,@function
_ZN4core3ptr54drop_in_place$LT$std..sys..pal..unix..fd..FileDesc$GT$17h1b9e3cddc47e8724E:
.Lfunc_begin75:
	.loc	19 574 0
	.cfi_startproc
	pushq	%rax
	.cfi_def_cfa_offset 16
	movq	%rdi, (%rsp)
.Ltmp481:
	.loc	19 574 1 prologue_end
	callq	_ZN4core3ptr48drop_in_place$LT$std..os..fd..owned..OwnedFd$GT$17h75e35fcdf7b4cc4aE
	.loc	19 574 1 epilogue_begin is_stmt 0
	popq	%rax
	.cfi_def_cfa_offset 8
	retq
.Ltmp482:
.Lfunc_end75:
	.size	_ZN4core3ptr54drop_in_place$LT$std..sys..pal..unix..fd..FileDesc$GT$17h1b9e3cddc47e8724E, .Lfunc_end75-_ZN4core3ptr54drop_in_place$LT$std..sys..pal..unix..fd..FileDesc$GT$17h1b9e3cddc47e8724E
	.cfi_endproc

	.section	".text._ZN4core3ptr55drop_in_place$LT$$RF$core..num..error..IntErrorKind$GT$17h3470b5ec9bb6998bE","ax",@progbits
	.p2align	4, 0x90
	.type	_ZN4core3ptr55drop_in_place$LT$$RF$core..num..error..IntErrorKind$GT$17h3470b5ec9bb6998bE,@function
_ZN4core3ptr55drop_in_place$LT$$RF$core..num..error..IntErrorKind$GT$17h3470b5ec9bb6998bE:
.Lfunc_begin76:
	.loc	19 574 0 is_stmt 1
	.cfi_startproc
	movq	%rdi, -8(%rsp)
.Ltmp483:
	.loc	19 574 1 prologue_end
	retq
.Ltmp484:
.Lfunc_end76:
	.size	_ZN4core3ptr55drop_in_place$LT$$RF$core..num..error..IntErrorKind$GT$17h3470b5ec9bb6998bE, .Lfunc_end76-_ZN4core3ptr55drop_in_place$LT$$RF$core..num..error..IntErrorKind$GT$17h3470b5ec9bb6998bE
	.cfi_endproc

	.section	".text._ZN4core3ptr57drop_in_place$LT$$u5b$alloc..ffi..c_str..CString$u5d$$GT$17hcbbb3a8d43a28e5fE","ax",@progbits
	.p2align	4, 0x90
	.type	_ZN4core3ptr57drop_in_place$LT$$u5b$alloc..ffi..c_str..CString$u5d$$GT$17hcbbb3a8d43a28e5fE,@function
_ZN4core3ptr57drop_in_place$LT$$u5b$alloc..ffi..c_str..CString$u5d$$GT$17hcbbb3a8d43a28e5fE:
.Lfunc_begin77:
	.loc	19 574 0
	.cfi_startproc
	.cfi_personality 155, DW.ref.rust_eh_personality
	.cfi_lsda 27, .Lexception15
	subq	$56, %rsp
	.cfi_def_cfa_offset 64
	movq	%rdi, (%rsp)
	movq	%rsi, 8(%rsp)
	movq	%rdi, 24(%rsp)
	movq	%rsi, 32(%rsp)
.Ltmp491:
	.loc	19 574 1 prologue_end
	movq	$0, 16(%rsp)
.LBB77_1:
	.loc	19 0 1 is_stmt 0
	movq	8(%rsp), %rax
	.loc	19 574 1
	cmpq	%rax, 16(%rsp)
	je	.LBB77_3
	.loc	19 0 1
	movq	(%rsp), %rdi
	.loc	19 574 1
	movq	16(%rsp), %rax
	movq	%rax, %rcx
	shlq	$4, %rcx
	addq	%rcx, %rdi
	incq	%rax
	movq	%rax, 16(%rsp)
.Ltmp485:
	callq	_ZN4core3ptr47drop_in_place$LT$alloc..ffi..c_str..CString$GT$17h701b409cc698c03cE
.Ltmp486:
	jmp	.LBB77_1
.LBB77_3:
	.loc	19 574 1 epilogue_begin
	addq	$56, %rsp
	.cfi_def_cfa_offset 8
	retq
.LBB77_4:
	.cfi_def_cfa_offset 64
	.loc	19 0 1
	movq	8(%rsp), %rax
	.loc	19 574 1
	cmpq	%rax, 16(%rsp)
	je	.LBB77_7
	jmp	.LBB77_6
.LBB77_5:
.Ltmp487:
	.loc	19 0 1
	movq	%rax, %rcx
	movl	%edx, %eax
	movq	%rcx, 40(%rsp)
	movl	%eax, 48(%rsp)
	jmp	.LBB77_4
.LBB77_6:
	movq	(%rsp), %rdi
	.loc	19 574 1
	movq	16(%rsp), %rax
	movq	%rax, %rcx
	shlq	$4, %rcx
	addq	%rcx, %rdi
	incq	%rax
	movq	%rax, 16(%rsp)
.Ltmp488:
	callq	_ZN4core3ptr47drop_in_place$LT$alloc..ffi..c_str..CString$GT$17h701b409cc698c03cE
.Ltmp489:
	jmp	.LBB77_4
.LBB77_7:
	movq	40(%rsp), %rdi
	callq	_Unwind_Resume@PLT
.LBB77_8:
.Ltmp490:
	movq	_ZN4core9panicking16panic_in_cleanup17hddc1b09eaad4daa3E@GOTPCREL(%rip), %rax
	callq	*%rax
.Ltmp492:
.Lfunc_end77:
	.size	_ZN4core3ptr57drop_in_place$LT$$u5b$alloc..ffi..c_str..CString$u5d$$GT$17hcbbb3a8d43a28e5fE, .Lfunc_end77-_ZN4core3ptr57drop_in_place$LT$$u5b$alloc..ffi..c_str..CString$u5d$$GT$17hcbbb3a8d43a28e5fE
	.cfi_endproc
	.section	".gcc_except_table._ZN4core3ptr57drop_in_place$LT$$u5b$alloc..ffi..c_str..CString$u5d$$GT$17hcbbb3a8d43a28e5fE","a",@progbits
	.p2align	2, 0x0
GCC_except_table77:
.Lexception15:
	.byte	255
	.byte	155
	.uleb128 .Lttbase9-.Lttbaseref9
.Lttbaseref9:
	.byte	1
	.uleb128 .Lcst_end15-.Lcst_begin15
.Lcst_begin15:
	.uleb128 .Ltmp485-.Lfunc_begin77
	.uleb128 .Ltmp486-.Ltmp485
	.uleb128 .Ltmp487-.Lfunc_begin77
	.byte	0
	.uleb128 .Ltmp488-.Lfunc_begin77
	.uleb128 .Ltmp489-.Ltmp488
	.uleb128 .Ltmp490-.Lfunc_begin77
	.byte	1
	.uleb128 .Ltmp489-.Lfunc_begin77
	.uleb128 .Lfunc_end77-.Ltmp489
	.byte	0
	.byte	0
.Lcst_end15:
	.byte	127
	.byte	0
	.p2align	2, 0x0
.Lttbase9:
	.byte	0
	.p2align	2, 0x0

	.section	".text._ZN4core3ptr57drop_in_place$LT$std..io..error..repr_bitpacked..Repr$GT$17h9032afa80617ddb1E","ax",@progbits
	.p2align	4, 0x90
	.type	_ZN4core3ptr57drop_in_place$LT$std..io..error..repr_bitpacked..Repr$GT$17h9032afa80617ddb1E,@function
_ZN4core3ptr57drop_in_place$LT$std..io..error..repr_bitpacked..Repr$GT$17h9032afa80617ddb1E:
.Lfunc_begin78:
	.loc	19 574 0 is_stmt 1
	.cfi_startproc
	pushq	%rax
	.cfi_def_cfa_offset 16
	movq	%rdi, (%rsp)
.Ltmp493:
	.loc	19 574 1 prologue_end
	callq	_ZN78_$LT$std..io..error..repr_bitpacked..Repr$u20$as$u20$core..ops..drop..Drop$GT$4drop17hdb58f60af90d8b34E
	.loc	19 574 1 epilogue_begin is_stmt 0
	popq	%rax
	.cfi_def_cfa_offset 8
	retq
.Ltmp494:
.Lfunc_end78:
	.size	_ZN4core3ptr57drop_in_place$LT$std..io..error..repr_bitpacked..Repr$GT$17h9032afa80617ddb1E, .Lfunc_end78-_ZN4core3ptr57drop_in_place$LT$std..io..error..repr_bitpacked..Repr$GT$17h9032afa80617ddb1E
	.cfi_endproc

	.section	".text._ZN4core3ptr57drop_in_place$LT$std..sys_common..process..CommandEnv$GT$17h1504ccc761c46190E","ax",@progbits
	.p2align	4, 0x90
	.type	_ZN4core3ptr57drop_in_place$LT$std..sys_common..process..CommandEnv$GT$17h1504ccc761c46190E,@function
_ZN4core3ptr57drop_in_place$LT$std..sys_common..process..CommandEnv$GT$17h1504ccc761c46190E:
.Lfunc_begin79:
	.loc	19 574 0 is_stmt 1
	.cfi_startproc
	pushq	%rax
	.cfi_def_cfa_offset 16
	movq	%rdi, (%rsp)
.Ltmp495:
	.loc	19 574 1 prologue_end
	callq	_ZN4core3ptr152drop_in_place$LT$alloc..collections..btree..map..BTreeMap$LT$std..ffi..os_str..OsString$C$core..option..Option$LT$std..ffi..os_str..OsString$GT$$GT$$GT$17h266ad7bb2639aad2E
	.loc	19 574 1 epilogue_begin is_stmt 0
	popq	%rax
	.cfi_def_cfa_offset 8
	retq
.Ltmp496:
.Lfunc_end79:
	.size	_ZN4core3ptr57drop_in_place$LT$std..sys_common..process..CommandEnv$GT$17h1504ccc761c46190E, .Lfunc_end79-_ZN4core3ptr57drop_in_place$LT$std..sys_common..process..CommandEnv$GT$17h1504ccc761c46190E
	.cfi_endproc

	.section	".text._ZN4core3ptr58drop_in_place$LT$alloc..boxed..Box$LT$$u5b$u8$u5d$$GT$$GT$17h1986334a17011bffE","ax",@progbits
	.p2align	4, 0x90
	.type	_ZN4core3ptr58drop_in_place$LT$alloc..boxed..Box$LT$$u5b$u8$u5d$$GT$$GT$17h1986334a17011bffE,@function
_ZN4core3ptr58drop_in_place$LT$alloc..boxed..Box$LT$$u5b$u8$u5d$$GT$$GT$17h1986334a17011bffE:
.Lfunc_begin80:
	.loc	19 574 0 is_stmt 1
	.cfi_startproc
	subq	$40, %rsp
	.cfi_def_cfa_offset 48
	movq	%rdi, 8(%rsp)
	movq	%rdi, 16(%rsp)
	movq	8(%rsp), %rdi
.Ltmp497:
	.loc	19 574 1 prologue_end
	callq	_ZN72_$LT$alloc..boxed..Box$LT$T$C$A$GT$$u20$as$u20$core..ops..drop..Drop$GT$4drop17h0b8e70bc929ab959E
	.loc	19 574 1 epilogue_begin is_stmt 0
	addq	$40, %rsp
	.cfi_def_cfa_offset 8
	retq
.Ltmp498:
.Lfunc_end80:
	.size	_ZN4core3ptr58drop_in_place$LT$alloc..boxed..Box$LT$$u5b$u8$u5d$$GT$$GT$17h1986334a17011bffE, .Lfunc_end80-_ZN4core3ptr58drop_in_place$LT$alloc..boxed..Box$LT$$u5b$u8$u5d$$GT$$GT$17h1986334a17011bffE
	.cfi_endproc

	.section	".text._ZN4core3ptr59drop_in_place$LT$alloc..boxed..Box$LT$$u5b$u32$u5d$$GT$$GT$17he3b6ceb66b4c7fa6E","ax",@progbits
	.p2align	4, 0x90
	.type	_ZN4core3ptr59drop_in_place$LT$alloc..boxed..Box$LT$$u5b$u32$u5d$$GT$$GT$17he3b6ceb66b4c7fa6E,@function
_ZN4core3ptr59drop_in_place$LT$alloc..boxed..Box$LT$$u5b$u32$u5d$$GT$$GT$17he3b6ceb66b4c7fa6E:
.Lfunc_begin81:
	.loc	19 574 0 is_stmt 1
	.cfi_startproc
	subq	$40, %rsp
	.cfi_def_cfa_offset 48
	movq	%rdi, 8(%rsp)
	movq	%rdi, 16(%rsp)
	movq	8(%rsp), %rdi
.Ltmp499:
	.loc	19 574 1 prologue_end
	callq	_ZN72_$LT$alloc..boxed..Box$LT$T$C$A$GT$$u20$as$u20$core..ops..drop..Drop$GT$4drop17h5f8523d18a94a214E
	.loc	19 574 1 epilogue_begin is_stmt 0
	addq	$40, %rsp
	.cfi_def_cfa_offset 8
	retq
.Ltmp500:
.Lfunc_end81:
	.size	_ZN4core3ptr59drop_in_place$LT$alloc..boxed..Box$LT$$u5b$u32$u5d$$GT$$GT$17he3b6ceb66b4c7fa6E, .Lfunc_end81-_ZN4core3ptr59drop_in_place$LT$alloc..boxed..Box$LT$$u5b$u32$u5d$$GT$$GT$17he3b6ceb66b4c7fa6E
	.cfi_endproc

	.section	".text._ZN4core3ptr60drop_in_place$LT$alloc..vec..Vec$LT$$BP$const$u20$i8$GT$$GT$17h8071a5c7b8d89a26E","ax",@progbits
	.p2align	4, 0x90
	.type	_ZN4core3ptr60drop_in_place$LT$alloc..vec..Vec$LT$$BP$const$u20$i8$GT$$GT$17h8071a5c7b8d89a26E,@function
_ZN4core3ptr60drop_in_place$LT$alloc..vec..Vec$LT$$BP$const$u20$i8$GT$$GT$17h8071a5c7b8d89a26E:
.Lfunc_begin82:
	.loc	19 574 0 is_stmt 1
	.cfi_startproc
	.cfi_personality 155, DW.ref.rust_eh_personality
	.cfi_lsda 27, .Lexception16
	subq	$40, %rsp
	.cfi_def_cfa_offset 48
	movq	%rdi, 8(%rsp)
	movq	%rdi, 16(%rsp)
.Ltmp501:
.Ltmp507:
	.loc	19 574 1 prologue_end
	callq	_ZN70_$LT$alloc..vec..Vec$LT$T$C$A$GT$$u20$as$u20$core..ops..drop..Drop$GT$4drop17hf63e547eaca3b3d9E
.Ltmp502:
	jmp	.LBB82_3
.LBB82_1:
.Ltmp504:
	.loc	19 0 1 is_stmt 0
	movq	8(%rsp), %rdi
	.loc	19 574 1
	callq	_ZN4core3ptr67drop_in_place$LT$alloc..raw_vec..RawVec$LT$$BP$const$u20$i8$GT$$GT$17hcb901254d2f4e21cE
.Ltmp505:
	jmp	.LBB82_5
.LBB82_2:
.Ltmp503:
	.loc	19 0 1
	movq	%rax, %rcx
	movl	%edx, %eax
	movq	%rcx, 24(%rsp)
	movl	%eax, 32(%rsp)
	jmp	.LBB82_1
.LBB82_3:
	movq	8(%rsp), %rdi
	.loc	19 574 1
	callq	_ZN4core3ptr67drop_in_place$LT$alloc..raw_vec..RawVec$LT$$BP$const$u20$i8$GT$$GT$17hcb901254d2f4e21cE
	.loc	19 574 1 epilogue_begin
	addq	$40, %rsp
	.cfi_def_cfa_offset 8
	retq
.LBB82_4:
	.cfi_def_cfa_offset 48
.Ltmp506:
	movq	_ZN4core9panicking16panic_in_cleanup17hddc1b09eaad4daa3E@GOTPCREL(%rip), %rax
	callq	*%rax
.LBB82_5:
	movq	24(%rsp), %rdi
	callq	_Unwind_Resume@PLT
.Ltmp508:
.Lfunc_end82:
	.size	_ZN4core3ptr60drop_in_place$LT$alloc..vec..Vec$LT$$BP$const$u20$i8$GT$$GT$17h8071a5c7b8d89a26E, .Lfunc_end82-_ZN4core3ptr60drop_in_place$LT$alloc..vec..Vec$LT$$BP$const$u20$i8$GT$$GT$17h8071a5c7b8d89a26E
	.cfi_endproc
	.section	".gcc_except_table._ZN4core3ptr60drop_in_place$LT$alloc..vec..Vec$LT$$BP$const$u20$i8$GT$$GT$17h8071a5c7b8d89a26E","a",@progbits
	.p2align	2, 0x0
GCC_except_table82:
.Lexception16:
	.byte	255
	.byte	155
	.uleb128 .Lttbase10-.Lttbaseref10
.Lttbaseref10:
	.byte	1
	.uleb128 .Lcst_end16-.Lcst_begin16
.Lcst_begin16:
	.uleb128 .Ltmp501-.Lfunc_begin82
	.uleb128 .Ltmp502-.Ltmp501
	.uleb128 .Ltmp503-.Lfunc_begin82
	.byte	0
	.uleb128 .Ltmp504-.Lfunc_begin82
	.uleb128 .Ltmp505-.Ltmp504
	.uleb128 .Ltmp506-.Lfunc_begin82
	.byte	1
	.uleb128 .Ltmp505-.Lfunc_begin82
	.uleb128 .Lfunc_end82-.Ltmp505
	.byte	0
	.byte	0
.Lcst_end16:
	.byte	127
	.byte	0
	.p2align	2, 0x0
.Lttbase10:
	.byte	0
	.p2align	2, 0x0

	.section	".text._ZN4core3ptr67drop_in_place$LT$alloc..raw_vec..RawVec$LT$$BP$const$u20$i8$GT$$GT$17hcb901254d2f4e21cE","ax",@progbits
	.p2align	4, 0x90
	.type	_ZN4core3ptr67drop_in_place$LT$alloc..raw_vec..RawVec$LT$$BP$const$u20$i8$GT$$GT$17hcb901254d2f4e21cE,@function
_ZN4core3ptr67drop_in_place$LT$alloc..raw_vec..RawVec$LT$$BP$const$u20$i8$GT$$GT$17hcb901254d2f4e21cE:
.Lfunc_begin83:
	.loc	19 574 0 is_stmt 1
	.cfi_startproc
	pushq	%rax
	.cfi_def_cfa_offset 16
	movq	%rdi, (%rsp)
.Ltmp509:
	.loc	19 574 1 prologue_end
	callq	_ZN77_$LT$alloc..raw_vec..RawVec$LT$T$C$A$GT$$u20$as$u20$core..ops..drop..Drop$GT$4drop17h3f6078d2a31a5bdeE
	.loc	19 574 1 epilogue_begin is_stmt 0
	popq	%rax
	.cfi_def_cfa_offset 8
	retq
.Ltmp510:
.Lfunc_end83:
	.size	_ZN4core3ptr67drop_in_place$LT$alloc..raw_vec..RawVec$LT$$BP$const$u20$i8$GT$$GT$17hcb901254d2f4e21cE, .Lfunc_end83-_ZN4core3ptr67drop_in_place$LT$alloc..raw_vec..RawVec$LT$$BP$const$u20$i8$GT$$GT$17hcb901254d2f4e21cE
	.cfi_endproc

	.section	".text._ZN4core3ptr68drop_in_place$LT$alloc..boxed..Box$LT$std..io..error..Custom$GT$$GT$17h4ccfbab9d7c3ef87E","ax",@progbits
	.p2align	4, 0x90
	.type	_ZN4core3ptr68drop_in_place$LT$alloc..boxed..Box$LT$std..io..error..Custom$GT$$GT$17h4ccfbab9d7c3ef87E,@function
_ZN4core3ptr68drop_in_place$LT$alloc..boxed..Box$LT$std..io..error..Custom$GT$$GT$17h4ccfbab9d7c3ef87E:
.Lfunc_begin84:
	.loc	19 574 0 is_stmt 1
	.cfi_startproc
	.cfi_personality 155, DW.ref.rust_eh_personality
	.cfi_lsda 27, .Lexception17
	subq	$40, %rsp
	.cfi_def_cfa_offset 48
	movq	%rdi, 8(%rsp)
	movq	%rdi, 16(%rsp)
.Ltmp517:
	.loc	19 574 1 prologue_end
	movq	(%rdi), %rdi
.Ltmp511:
	callq	_ZN4core3ptr43drop_in_place$LT$std..io..error..Custom$GT$17h27ff28141545aa64E
.Ltmp512:
	jmp	.LBB84_3
.LBB84_1:
.Ltmp514:
	.loc	19 0 1 is_stmt 0
	movq	8(%rsp), %rdi
	.loc	19 574 1
	callq	_ZN72_$LT$alloc..boxed..Box$LT$T$C$A$GT$$u20$as$u20$core..ops..drop..Drop$GT$4drop17he1b346d7b80e287cE
.Ltmp515:
	jmp	.LBB84_5
.LBB84_2:
.Ltmp513:
	.loc	19 0 1
	movq	%rax, %rcx
	movl	%edx, %eax
	movq	%rcx, 24(%rsp)
	movl	%eax, 32(%rsp)
	jmp	.LBB84_1
.LBB84_3:
	movq	8(%rsp), %rdi
	.loc	19 574 1
	callq	_ZN72_$LT$alloc..boxed..Box$LT$T$C$A$GT$$u20$as$u20$core..ops..drop..Drop$GT$4drop17he1b346d7b80e287cE
	.loc	19 574 1 epilogue_begin
	addq	$40, %rsp
	.cfi_def_cfa_offset 8
	retq
.LBB84_4:
	.cfi_def_cfa_offset 48
.Ltmp516:
	movq	_ZN4core9panicking16panic_in_cleanup17hddc1b09eaad4daa3E@GOTPCREL(%rip), %rax
	callq	*%rax
.LBB84_5:
	movq	24(%rsp), %rdi
	callq	_Unwind_Resume@PLT
.Ltmp518:
.Lfunc_end84:
	.size	_ZN4core3ptr68drop_in_place$LT$alloc..boxed..Box$LT$std..io..error..Custom$GT$$GT$17h4ccfbab9d7c3ef87E, .Lfunc_end84-_ZN4core3ptr68drop_in_place$LT$alloc..boxed..Box$LT$std..io..error..Custom$GT$$GT$17h4ccfbab9d7c3ef87E
	.cfi_endproc
	.section	".gcc_except_table._ZN4core3ptr68drop_in_place$LT$alloc..boxed..Box$LT$std..io..error..Custom$GT$$GT$17h4ccfbab9d7c3ef87E","a",@progbits
	.p2align	2, 0x0
GCC_except_table84:
.Lexception17:
	.byte	255
	.byte	155
	.uleb128 .Lttbase11-.Lttbaseref11
.Lttbaseref11:
	.byte	1
	.uleb128 .Lcst_end17-.Lcst_begin17
.Lcst_begin17:
	.uleb128 .Ltmp511-.Lfunc_begin84
	.uleb128 .Ltmp512-.Ltmp511
	.uleb128 .Ltmp513-.Lfunc_begin84
	.byte	0
	.uleb128 .Ltmp514-.Lfunc_begin84
	.uleb128 .Ltmp515-.Ltmp514
	.uleb128 .Ltmp516-.Lfunc_begin84
	.byte	1
	.uleb128 .Ltmp515-.Lfunc_begin84
	.uleb128 .Lfunc_end84-.Ltmp515
	.byte	0
	.byte	0
.Lcst_end17:
	.byte	127
	.byte	0
	.p2align	2, 0x0
.Lttbase11:
	.byte	0
	.p2align	2, 0x0

	.section	".text._ZN4core3ptr70drop_in_place$LT$alloc..vec..Vec$LT$alloc..ffi..c_str..CString$GT$$GT$17hcfb14ff77c7b54a4E","ax",@progbits
	.p2align	4, 0x90
	.type	_ZN4core3ptr70drop_in_place$LT$alloc..vec..Vec$LT$alloc..ffi..c_str..CString$GT$$GT$17hcfb14ff77c7b54a4E,@function
_ZN4core3ptr70drop_in_place$LT$alloc..vec..Vec$LT$alloc..ffi..c_str..CString$GT$$GT$17hcfb14ff77c7b54a4E:
.Lfunc_begin85:
	.loc	19 574 0 is_stmt 1
	.cfi_startproc
	.cfi_personality 155, DW.ref.rust_eh_personality
	.cfi_lsda 27, .Lexception18
	subq	$40, %rsp
	.cfi_def_cfa_offset 48
	movq	%rdi, 8(%rsp)
	movq	%rdi, 16(%rsp)
.Ltmp519:
.Ltmp525:
	.loc	19 574 1 prologue_end
	callq	_ZN70_$LT$alloc..vec..Vec$LT$T$C$A$GT$$u20$as$u20$core..ops..drop..Drop$GT$4drop17h6000621590667900E
.Ltmp520:
	jmp	.LBB85_3
.LBB85_1:
.Ltmp522:
	.loc	19 0 1 is_stmt 0
	movq	8(%rsp), %rdi
	.loc	19 574 1
	callq	_ZN4core3ptr77drop_in_place$LT$alloc..raw_vec..RawVec$LT$alloc..ffi..c_str..CString$GT$$GT$17h00358e0d6c351224E
.Ltmp523:
	jmp	.LBB85_5
.LBB85_2:
.Ltmp521:
	.loc	19 0 1
	movq	%rax, %rcx
	movl	%edx, %eax
	movq	%rcx, 24(%rsp)
	movl	%eax, 32(%rsp)
	jmp	.LBB85_1
.LBB85_3:
	movq	8(%rsp), %rdi
	.loc	19 574 1
	callq	_ZN4core3ptr77drop_in_place$LT$alloc..raw_vec..RawVec$LT$alloc..ffi..c_str..CString$GT$$GT$17h00358e0d6c351224E
	.loc	19 574 1 epilogue_begin
	addq	$40, %rsp
	.cfi_def_cfa_offset 8
	retq
.LBB85_4:
	.cfi_def_cfa_offset 48
.Ltmp524:
	movq	_ZN4core9panicking16panic_in_cleanup17hddc1b09eaad4daa3E@GOTPCREL(%rip), %rax
	callq	*%rax
.LBB85_5:
	movq	24(%rsp), %rdi
	callq	_Unwind_Resume@PLT
.Ltmp526:
.Lfunc_end85:
	.size	_ZN4core3ptr70drop_in_place$LT$alloc..vec..Vec$LT$alloc..ffi..c_str..CString$GT$$GT$17hcfb14ff77c7b54a4E, .Lfunc_end85-_ZN4core3ptr70drop_in_place$LT$alloc..vec..Vec$LT$alloc..ffi..c_str..CString$GT$$GT$17hcfb14ff77c7b54a4E
	.cfi_endproc
	.section	".gcc_except_table._ZN4core3ptr70drop_in_place$LT$alloc..vec..Vec$LT$alloc..ffi..c_str..CString$GT$$GT$17hcfb14ff77c7b54a4E","a",@progbits
	.p2align	2, 0x0
GCC_except_table85:
.Lexception18:
	.byte	255
	.byte	155
	.uleb128 .Lttbase12-.Lttbaseref12
.Lttbaseref12:
	.byte	1
	.uleb128 .Lcst_end18-.Lcst_begin18
.Lcst_begin18:
	.uleb128 .Ltmp519-.Lfunc_begin85
	.uleb128 .Ltmp520-.Ltmp519
	.uleb128 .Ltmp521-.Lfunc_begin85
	.byte	0
	.uleb128 .Ltmp522-.Lfunc_begin85
	.uleb128 .Ltmp523-.Ltmp522
	.uleb128 .Ltmp524-.Lfunc_begin85
	.byte	1
	.uleb128 .Ltmp523-.Lfunc_begin85
	.uleb128 .Lfunc_end85-.Ltmp523
	.byte	0
	.byte	0
.Lcst_end18:
	.byte	127
	.byte	0
	.p2align	2, 0x0
.Lttbase12:
	.byte	0
	.p2align	2, 0x0

	.section	".text._ZN4core3ptr71drop_in_place$LT$std..sys..pal..unix..process..process_common..Argv$GT$17h36f498f8e951313eE","ax",@progbits
	.p2align	4, 0x90
	.type	_ZN4core3ptr71drop_in_place$LT$std..sys..pal..unix..process..process_common..Argv$GT$17h36f498f8e951313eE,@function
_ZN4core3ptr71drop_in_place$LT$std..sys..pal..unix..process..process_common..Argv$GT$17h36f498f8e951313eE:
.Lfunc_begin86:
	.loc	19 574 0 is_stmt 1
	.cfi_startproc
	pushq	%rax
	.cfi_def_cfa_offset 16
	movq	%rdi, (%rsp)
.Ltmp527:
	.loc	19 574 1 prologue_end
	callq	_ZN4core3ptr60drop_in_place$LT$alloc..vec..Vec$LT$$BP$const$u20$i8$GT$$GT$17h8071a5c7b8d89a26E
	.loc	19 574 1 epilogue_begin is_stmt 0
	popq	%rax
	.cfi_def_cfa_offset 8
	retq
.Ltmp528:
.Lfunc_end86:
	.size	_ZN4core3ptr71drop_in_place$LT$std..sys..pal..unix..process..process_common..Argv$GT$17h36f498f8e951313eE, .Lfunc_end86-_ZN4core3ptr71drop_in_place$LT$std..sys..pal..unix..process..process_common..Argv$GT$17h36f498f8e951313eE
	.cfi_endproc

	.section	".text._ZN4core3ptr72drop_in_place$LT$alloc..collections..btree..mem..replace..PanicGuard$GT$17hd9fa9d04749cc284E","ax",@progbits
	.p2align	4, 0x90
	.type	_ZN4core3ptr72drop_in_place$LT$alloc..collections..btree..mem..replace..PanicGuard$GT$17hd9fa9d04749cc284E,@function
_ZN4core3ptr72drop_in_place$LT$alloc..collections..btree..mem..replace..PanicGuard$GT$17hd9fa9d04749cc284E:
.Lfunc_begin87:
	.loc	19 574 0 is_stmt 1
	.cfi_startproc
	pushq	%rax
	.cfi_def_cfa_offset 16
	movq	%rdi, (%rsp)
.Ltmp529:
	.loc	19 574 1 prologue_end
	callq	*_ZN93_$LT$alloc..collections..btree..mem..replace..PanicGuard$u20$as$u20$core..ops..drop..Drop$GT$4drop17hbea157b3fc2eeca7E@GOTPCREL(%rip)
	.loc	19 574 1 epilogue_begin is_stmt 0
	popq	%rax
	.cfi_def_cfa_offset 8
	retq
.Ltmp530:
.Lfunc_end87:
	.size	_ZN4core3ptr72drop_in_place$LT$alloc..collections..btree..mem..replace..PanicGuard$GT$17hd9fa9d04749cc284E, .Lfunc_end87-_ZN4core3ptr72drop_in_place$LT$alloc..collections..btree..mem..replace..PanicGuard$GT$17hd9fa9d04749cc284E
	.cfi_endproc

	.section	".text._ZN4core3ptr72drop_in_place$LT$std..sys..pal..unix..process..process_common..Stdio$GT$17hbed6cc02a047e512E","ax",@progbits
	.p2align	4, 0x90
	.type	_ZN4core3ptr72drop_in_place$LT$std..sys..pal..unix..process..process_common..Stdio$GT$17hbed6cc02a047e512E,@function
_ZN4core3ptr72drop_in_place$LT$std..sys..pal..unix..process..process_common..Stdio$GT$17hbed6cc02a047e512E:
.Lfunc_begin88:
	.loc	19 574 0 is_stmt 1
	.cfi_startproc
	subq	$24, %rsp
	.cfi_def_cfa_offset 32
	movq	%rdi, 8(%rsp)
	movq	%rdi, 16(%rsp)
.Ltmp531:
	.loc	19 574 1 prologue_end
	movl	(%rdi), %eax
	cmpq	$3, %rax
	jne	.LBB88_2
	.loc	19 0 1 is_stmt 0
	movq	8(%rsp), %rdi
	.loc	19 574 1
	addq	$4, %rdi
	callq	_ZN4core3ptr54drop_in_place$LT$std..sys..pal..unix..fd..FileDesc$GT$17h1b9e3cddc47e8724E
.LBB88_2:
	.loc	19 574 1 epilogue_begin
	addq	$24, %rsp
	.cfi_def_cfa_offset 8
	retq
.Ltmp532:
.Lfunc_end88:
	.size	_ZN4core3ptr72drop_in_place$LT$std..sys..pal..unix..process..process_common..Stdio$GT$17hbed6cc02a047e512E, .Lfunc_end88-_ZN4core3ptr72drop_in_place$LT$std..sys..pal..unix..process..process_common..Stdio$GT$17hbed6cc02a047e512E
	.cfi_endproc

	.section	".text._ZN4core3ptr74drop_in_place$LT$std..sys..pal..unix..process..process_common..Command$GT$17h2862a4bccf83454eE","ax",@progbits
	.p2align	4, 0x90
	.type	_ZN4core3ptr74drop_in_place$LT$std..sys..pal..unix..process..process_common..Command$GT$17h2862a4bccf83454eE,@function
_ZN4core3ptr74drop_in_place$LT$std..sys..pal..unix..process..process_common..Command$GT$17h2862a4bccf83454eE:
.Lfunc_begin89:
	.loc	19 574 0 is_stmt 1
	.cfi_startproc
	.cfi_personality 155, DW.ref.rust_eh_personality
	.cfi_lsda 27, .Lexception19
	subq	$40, %rsp
	.cfi_def_cfa_offset 48
	movq	%rdi, 8(%rsp)
	movq	%rdi, 16(%rsp)
.Ltmp579:
	.loc	19 574 1 prologue_end
	addq	$152, %rdi
.Ltmp533:
	callq	_ZN4core3ptr47drop_in_place$LT$alloc..ffi..c_str..CString$GT$17h701b409cc698c03cE
.Ltmp534:
	jmp	.LBB89_3
.LBB89_1:
.Ltmp536:
	.loc	19 0 1 is_stmt 0
	movq	8(%rsp), %rdi
	.loc	19 574 1
	callq	_ZN4core3ptr70drop_in_place$LT$alloc..vec..Vec$LT$alloc..ffi..c_str..CString$GT$$GT$17hcfb14ff77c7b54a4E
.Ltmp537:
	jmp	.LBB89_4
.LBB89_2:
.Ltmp535:
	.loc	19 0 1
	movq	%rax, %rcx
	movl	%edx, %eax
	movq	%rcx, 24(%rsp)
	movl	%eax, 32(%rsp)
	jmp	.LBB89_1
.LBB89_3:
.Ltmp538:
	movq	8(%rsp), %rdi
	.loc	19 574 1
	callq	_ZN4core3ptr70drop_in_place$LT$alloc..vec..Vec$LT$alloc..ffi..c_str..CString$GT$$GT$17hcfb14ff77c7b54a4E
.Ltmp539:
	jmp	.LBB89_6
.LBB89_4:
	.loc	19 0 1
	movq	8(%rsp), %rdi
	.loc	19 574 1
	addq	$24, %rdi
.Ltmp541:
	callq	_ZN4core3ptr71drop_in_place$LT$std..sys..pal..unix..process..process_common..Argv$GT$17h36f498f8e951313eE
.Ltmp542:
	jmp	.LBB89_7
.LBB89_5:
.Ltmp540:
	.loc	19 0 1
	movq	%rax, %rcx
	movl	%edx, %eax
	movq	%rcx, 24(%rsp)
	movl	%eax, 32(%rsp)
	jmp	.LBB89_4
.LBB89_6:
	movq	8(%rsp), %rdi
	.loc	19 574 1
	addq	$24, %rdi
.Ltmp543:
	callq	_ZN4core3ptr71drop_in_place$LT$std..sys..pal..unix..process..process_common..Argv$GT$17h36f498f8e951313eE
.Ltmp544:
	jmp	.LBB89_9
.LBB89_7:
	.loc	19 0 1
	movq	8(%rsp), %rdi
	.loc	19 574 1
	addq	$120, %rdi
.Ltmp546:
	callq	_ZN4core3ptr57drop_in_place$LT$std..sys_common..process..CommandEnv$GT$17h1504ccc761c46190E
.Ltmp547:
	jmp	.LBB89_10
.LBB89_8:
.Ltmp545:
	.loc	19 0 1
	movq	%rax, %rcx
	movl	%edx, %eax
	movq	%rcx, 24(%rsp)
	movl	%eax, 32(%rsp)
	jmp	.LBB89_7
.LBB89_9:
	movq	8(%rsp), %rdi
	.loc	19 574 1
	addq	$120, %rdi
.Ltmp548:
	callq	_ZN4core3ptr57drop_in_place$LT$std..sys_common..process..CommandEnv$GT$17h1504ccc761c46190E
.Ltmp549:
	jmp	.LBB89_12
.LBB89_10:
	.loc	19 0 1
	movq	8(%rsp), %rdi
	.loc	19 574 1
	addq	$168, %rdi
.Ltmp551:
	callq	_ZN4core3ptr75drop_in_place$LT$core..option..Option$LT$alloc..ffi..c_str..CString$GT$$GT$17h1c2ccb8f1b642f0cE
.Ltmp552:
	jmp	.LBB89_13
.LBB89_11:
.Ltmp550:
	.loc	19 0 1
	movq	%rax, %rcx
	movl	%edx, %eax
	movq	%rcx, 24(%rsp)
	movl	%eax, 32(%rsp)
	jmp	.LBB89_10
.LBB89_12:
	movq	8(%rsp), %rdi
	.loc	19 574 1
	addq	$168, %rdi
.Ltmp553:
	callq	_ZN4core3ptr75drop_in_place$LT$core..option..Option$LT$alloc..ffi..c_str..CString$GT$$GT$17h1c2ccb8f1b642f0cE
.Ltmp554:
	jmp	.LBB89_15
.LBB89_13:
	.loc	19 0 1
	movq	8(%rsp), %rdi
	.loc	19 574 1
	addq	$48, %rdi
.Ltmp556:
	callq	_ZN4core3ptr251drop_in_place$LT$alloc..vec..Vec$LT$alloc..boxed..Box$LT$dyn$u20$core..ops..function..FnMut$LT$$LP$$RP$$GT$$u2b$Output$u20$$u3d$$u20$core..result..Result$LT$$LP$$RP$$C$std..io..error..Error$GT$$u2b$core..marker..Sync$u2b$core..marker..Send$GT$$GT$$GT$17hc7f39c161c2e773fE
.Ltmp557:
	jmp	.LBB89_16
.LBB89_14:
.Ltmp555:
	.loc	19 0 1
	movq	%rax, %rcx
	movl	%edx, %eax
	movq	%rcx, 24(%rsp)
	movl	%eax, 32(%rsp)
	jmp	.LBB89_13
.LBB89_15:
	movq	8(%rsp), %rdi
	.loc	19 574 1
	addq	$48, %rdi
.Ltmp558:
	callq	_ZN4core3ptr251drop_in_place$LT$alloc..vec..Vec$LT$alloc..boxed..Box$LT$dyn$u20$core..ops..function..FnMut$LT$$LP$$RP$$GT$$u2b$Output$u20$$u3d$$u20$core..result..Result$LT$$LP$$RP$$C$std..io..error..Error$GT$$u2b$core..marker..Sync$u2b$core..marker..Send$GT$$GT$$GT$17hc7f39c161c2e773fE
.Ltmp559:
	jmp	.LBB89_18
.LBB89_16:
	.loc	19 0 1
	movq	8(%rsp), %rdi
	.loc	19 574 1
	addq	$184, %rdi
.Ltmp561:
	callq	_ZN4core3ptr87drop_in_place$LT$core..option..Option$LT$alloc..boxed..Box$LT$$u5b$u32$u5d$$GT$$GT$$GT$17hb1b1cd7c197dd8cdE
.Ltmp562:
	jmp	.LBB89_19
.LBB89_17:
.Ltmp560:
	.loc	19 0 1
	movq	%rax, %rcx
	movl	%edx, %eax
	movq	%rcx, 24(%rsp)
	movl	%eax, 32(%rsp)
	jmp	.LBB89_16
.LBB89_18:
	movq	8(%rsp), %rdi
	.loc	19 574 1
	addq	$184, %rdi
.Ltmp563:
	callq	_ZN4core3ptr87drop_in_place$LT$core..option..Option$LT$alloc..boxed..Box$LT$$u5b$u32$u5d$$GT$$GT$$GT$17hb1b1cd7c197dd8cdE
.Ltmp564:
	jmp	.LBB89_21
.LBB89_19:
	.loc	19 0 1
	movq	8(%rsp), %rdi
	.loc	19 574 1
	addq	$96, %rdi
.Ltmp566:
	callq	_ZN4core3ptr100drop_in_place$LT$core..option..Option$LT$std..sys..pal..unix..process..process_common..Stdio$GT$$GT$17h9f2ef8345de0d526E
.Ltmp567:
	jmp	.LBB89_22
.LBB89_20:
.Ltmp565:
	.loc	19 0 1
	movq	%rax, %rcx
	movl	%edx, %eax
	movq	%rcx, 24(%rsp)
	movl	%eax, 32(%rsp)
	jmp	.LBB89_19
.LBB89_21:
	movq	8(%rsp), %rdi
	.loc	19 574 1
	addq	$96, %rdi
.Ltmp568:
	callq	_ZN4core3ptr100drop_in_place$LT$core..option..Option$LT$std..sys..pal..unix..process..process_common..Stdio$GT$$GT$17h9f2ef8345de0d526E
.Ltmp569:
	jmp	.LBB89_24
.LBB89_22:
	.loc	19 0 1
	movq	8(%rsp), %rdi
	.loc	19 574 1
	addq	$104, %rdi
.Ltmp571:
	callq	_ZN4core3ptr100drop_in_place$LT$core..option..Option$LT$std..sys..pal..unix..process..process_common..Stdio$GT$$GT$17h9f2ef8345de0d526E
.Ltmp572:
	jmp	.LBB89_25
.LBB89_23:
.Ltmp570:
	.loc	19 0 1
	movq	%rax, %rcx
	movl	%edx, %eax
	movq	%rcx, 24(%rsp)
	movl	%eax, 32(%rsp)
	jmp	.LBB89_22
.LBB89_24:
	movq	8(%rsp), %rdi
	.loc	19 574 1
	addq	$104, %rdi
.Ltmp573:
	callq	_ZN4core3ptr100drop_in_place$LT$core..option..Option$LT$std..sys..pal..unix..process..process_common..Stdio$GT$$GT$17h9f2ef8345de0d526E
.Ltmp574:
	jmp	.LBB89_27
.LBB89_25:
	.loc	19 0 1
	movq	8(%rsp), %rdi
	.loc	19 574 1
	addq	$112, %rdi
.Ltmp576:
	callq	_ZN4core3ptr100drop_in_place$LT$core..option..Option$LT$std..sys..pal..unix..process..process_common..Stdio$GT$$GT$17h9f2ef8345de0d526E
.Ltmp577:
	jmp	.LBB89_29
.LBB89_26:
.Ltmp575:
	.loc	19 0 1
	movq	%rax, %rcx
	movl	%edx, %eax
	movq	%rcx, 24(%rsp)
	movl	%eax, 32(%rsp)
	jmp	.LBB89_25
.LBB89_27:
	movq	8(%rsp), %rdi
	.loc	19 574 1
	addq	$112, %rdi
	callq	_ZN4core3ptr100drop_in_place$LT$core..option..Option$LT$std..sys..pal..unix..process..process_common..Stdio$GT$$GT$17h9f2ef8345de0d526E
	.loc	19 574 1 epilogue_begin
	addq	$40, %rsp
	.cfi_def_cfa_offset 8
	retq
.LBB89_28:
	.cfi_def_cfa_offset 48
.Ltmp578:
	movq	_ZN4core9panicking16panic_in_cleanup17hddc1b09eaad4daa3E@GOTPCREL(%rip), %rax
	callq	*%rax
.LBB89_29:
	movq	24(%rsp), %rdi
	callq	_Unwind_Resume@PLT
.Ltmp580:
.Lfunc_end89:
	.size	_ZN4core3ptr74drop_in_place$LT$std..sys..pal..unix..process..process_common..Command$GT$17h2862a4bccf83454eE, .Lfunc_end89-_ZN4core3ptr74drop_in_place$LT$std..sys..pal..unix..process..process_common..Command$GT$17h2862a4bccf83454eE
	.cfi_endproc
	.section	".gcc_except_table._ZN4core3ptr74drop_in_place$LT$std..sys..pal..unix..process..process_common..Command$GT$17h2862a4bccf83454eE","a",@progbits
	.p2align	2, 0x0
GCC_except_table89:
.Lexception19:
	.byte	255
	.byte	155
	.uleb128 .Lttbase13-.Lttbaseref13
.Lttbaseref13:
	.byte	1
	.uleb128 .Lcst_end19-.Lcst_begin19
.Lcst_begin19:
	.uleb128 .Ltmp533-.Lfunc_begin89
	.uleb128 .Ltmp534-.Ltmp533
	.uleb128 .Ltmp535-.Lfunc_begin89
	.byte	0
	.uleb128 .Ltmp536-.Lfunc_begin89
	.uleb128 .Ltmp537-.Ltmp536
	.uleb128 .Ltmp578-.Lfunc_begin89
	.byte	1
	.uleb128 .Ltmp538-.Lfunc_begin89
	.uleb128 .Ltmp539-.Ltmp538
	.uleb128 .Ltmp540-.Lfunc_begin89
	.byte	0
	.uleb128 .Ltmp541-.Lfunc_begin89
	.uleb128 .Ltmp542-.Ltmp541
	.uleb128 .Ltmp578-.Lfunc_begin89
	.byte	1
	.uleb128 .Ltmp543-.Lfunc_begin89
	.uleb128 .Ltmp544-.Ltmp543
	.uleb128 .Ltmp545-.Lfunc_begin89
	.byte	0
	.uleb128 .Ltmp546-.Lfunc_begin89
	.uleb128 .Ltmp547-.Ltmp546
	.uleb128 .Ltmp578-.Lfunc_begin89
	.byte	1
	.uleb128 .Ltmp548-.Lfunc_begin89
	.uleb128 .Ltmp549-.Ltmp548
	.uleb128 .Ltmp550-.Lfunc_begin89
	.byte	0
	.uleb128 .Ltmp551-.Lfunc_begin89
	.uleb128 .Ltmp552-.Ltmp551
	.uleb128 .Ltmp578-.Lfunc_begin89
	.byte	1
	.uleb128 .Ltmp553-.Lfunc_begin89
	.uleb128 .Ltmp554-.Ltmp553
	.uleb128 .Ltmp555-.Lfunc_begin89
	.byte	0
	.uleb128 .Ltmp556-.Lfunc_begin89
	.uleb128 .Ltmp557-.Ltmp556
	.uleb128 .Ltmp578-.Lfunc_begin89
	.byte	1
	.uleb128 .Ltmp558-.Lfunc_begin89
	.uleb128 .Ltmp559-.Ltmp558
	.uleb128 .Ltmp560-.Lfunc_begin89
	.byte	0
	.uleb128 .Ltmp561-.Lfunc_begin89
	.uleb128 .Ltmp562-.Ltmp561
	.uleb128 .Ltmp578-.Lfunc_begin89
	.byte	1
	.uleb128 .Ltmp563-.Lfunc_begin89
	.uleb128 .Ltmp564-.Ltmp563
	.uleb128 .Ltmp565-.Lfunc_begin89
	.byte	0
	.uleb128 .Ltmp566-.Lfunc_begin89
	.uleb128 .Ltmp567-.Ltmp566
	.uleb128 .Ltmp578-.Lfunc_begin89
	.byte	1
	.uleb128 .Ltmp568-.Lfunc_begin89
	.uleb128 .Ltmp569-.Ltmp568
	.uleb128 .Ltmp570-.Lfunc_begin89
	.byte	0
	.uleb128 .Ltmp571-.Lfunc_begin89
	.uleb128 .Ltmp572-.Ltmp571
	.uleb128 .Ltmp578-.Lfunc_begin89
	.byte	1
	.uleb128 .Ltmp573-.Lfunc_begin89
	.uleb128 .Ltmp574-.Ltmp573
	.uleb128 .Ltmp575-.Lfunc_begin89
	.byte	0
	.uleb128 .Ltmp576-.Lfunc_begin89
	.uleb128 .Ltmp577-.Ltmp576
	.uleb128 .Ltmp578-.Lfunc_begin89
	.byte	1
	.uleb128 .Ltmp577-.Lfunc_begin89
	.uleb128 .Lfunc_end89-.Ltmp577
	.byte	0
	.byte	0
.Lcst_end19:
	.byte	127
	.byte	0
	.p2align	2, 0x0
.Lttbase13:
	.byte	0
	.p2align	2, 0x0

	.section	".text._ZN4core3ptr75drop_in_place$LT$core..option..Option$LT$alloc..ffi..c_str..CString$GT$$GT$17h1c2ccb8f1b642f0cE","ax",@progbits
	.p2align	4, 0x90
	.type	_ZN4core3ptr75drop_in_place$LT$core..option..Option$LT$alloc..ffi..c_str..CString$GT$$GT$17h1c2ccb8f1b642f0cE,@function
_ZN4core3ptr75drop_in_place$LT$core..option..Option$LT$alloc..ffi..c_str..CString$GT$$GT$17h1c2ccb8f1b642f0cE:
.Lfunc_begin90:
	.loc	19 574 0 is_stmt 1
	.cfi_startproc
	subq	$24, %rsp
	.cfi_def_cfa_offset 32
	movq	%rdi, 8(%rsp)
	movq	%rdi, 16(%rsp)
.Ltmp581:
	.loc	19 574 1 prologue_end
	movq	(%rdi), %rdx
	movl	$1, %eax
	xorl	%ecx, %ecx
	cmpq	$0, %rdx
	cmoveq	%rcx, %rax
	cmpq	$0, %rax
	jne	.LBB90_2
.LBB90_1:
	.loc	19 574 1 epilogue_begin is_stmt 0
	addq	$24, %rsp
	.cfi_def_cfa_offset 8
	retq
.LBB90_2:
	.cfi_def_cfa_offset 32
	.loc	19 0 1
	movq	8(%rsp), %rdi
	.loc	19 574 1
	callq	_ZN4core3ptr47drop_in_place$LT$alloc..ffi..c_str..CString$GT$17h701b409cc698c03cE
	jmp	.LBB90_1
.Ltmp582:
.Lfunc_end90:
	.size	_ZN4core3ptr75drop_in_place$LT$core..option..Option$LT$alloc..ffi..c_str..CString$GT$$GT$17h1c2ccb8f1b642f0cE, .Lfunc_end90-_ZN4core3ptr75drop_in_place$LT$core..option..Option$LT$alloc..ffi..c_str..CString$GT$$GT$17h1c2ccb8f1b642f0cE
	.cfi_endproc

	.section	".text._ZN4core3ptr75drop_in_place$LT$core..option..Option$LT$std..ffi..os_str..OsString$GT$$GT$17h5ebcf59be34c31e5E","ax",@progbits
	.p2align	4, 0x90
	.type	_ZN4core3ptr75drop_in_place$LT$core..option..Option$LT$std..ffi..os_str..OsString$GT$$GT$17h5ebcf59be34c31e5E,@function
_ZN4core3ptr75drop_in_place$LT$core..option..Option$LT$std..ffi..os_str..OsString$GT$$GT$17h5ebcf59be34c31e5E:
.Lfunc_begin91:
	.loc	19 574 0 is_stmt 1
	.cfi_startproc
	subq	$24, %rsp
	.cfi_def_cfa_offset 32
	movq	%rdi, 8(%rsp)
	movq	%rdi, 16(%rsp)
.Ltmp583:
	.loc	19 574 1 prologue_end
	movabsq	$-9223372036854775808, %rdx
	movl	$1, %eax
	xorl	%ecx, %ecx
	cmpq	%rdx, (%rdi)
	cmoveq	%rcx, %rax
	cmpq	$0, %rax
	jne	.LBB91_2
.LBB91_1:
	.loc	19 574 1 epilogue_begin is_stmt 0
	addq	$24, %rsp
	.cfi_def_cfa_offset 8
	retq
.LBB91_2:
	.cfi_def_cfa_offset 32
	.loc	19 0 1
	movq	8(%rsp), %rdi
	.loc	19 574 1
	callq	_ZN4core3ptr47drop_in_place$LT$std..ffi..os_str..OsString$GT$17hb0a52be10d38c602E
	jmp	.LBB91_1
.Ltmp584:
.Lfunc_end91:
	.size	_ZN4core3ptr75drop_in_place$LT$core..option..Option$LT$std..ffi..os_str..OsString$GT$$GT$17h5ebcf59be34c31e5E, .Lfunc_end91-_ZN4core3ptr75drop_in_place$LT$core..option..Option$LT$std..ffi..os_str..OsString$GT$$GT$17h5ebcf59be34c31e5E
	.cfi_endproc

	.section	".text._ZN4core3ptr77drop_in_place$LT$alloc..raw_vec..RawVec$LT$alloc..ffi..c_str..CString$GT$$GT$17h00358e0d6c351224E","ax",@progbits
	.p2align	4, 0x90
	.type	_ZN4core3ptr77drop_in_place$LT$alloc..raw_vec..RawVec$LT$alloc..ffi..c_str..CString$GT$$GT$17h00358e0d6c351224E,@function
_ZN4core3ptr77drop_in_place$LT$alloc..raw_vec..RawVec$LT$alloc..ffi..c_str..CString$GT$$GT$17h00358e0d6c351224E:
.Lfunc_begin92:
	.loc	19 574 0 is_stmt 1
	.cfi_startproc
	pushq	%rax
	.cfi_def_cfa_offset 16
	movq	%rdi, (%rsp)
.Ltmp585:
	.loc	19 574 1 prologue_end
	callq	_ZN77_$LT$alloc..raw_vec..RawVec$LT$T$C$A$GT$$u20$as$u20$core..ops..drop..Drop$GT$4drop17hab122088e7d8ce51E
	.loc	19 574 1 epilogue_begin is_stmt 0
	popq	%rax
	.cfi_def_cfa_offset 8
	retq
.Ltmp586:
.Lfunc_end92:
	.size	_ZN4core3ptr77drop_in_place$LT$alloc..raw_vec..RawVec$LT$alloc..ffi..c_str..CString$GT$$GT$17h00358e0d6c351224E, .Lfunc_end92-_ZN4core3ptr77drop_in_place$LT$alloc..raw_vec..RawVec$LT$alloc..ffi..c_str..CString$GT$$GT$17h00358e0d6c351224E
	.cfi_endproc

	.section	".text._ZN4core3ptr85drop_in_place$LT$std..rt..lang_start$LT$$LP$$RP$$GT$..$u7b$$u7b$closure$u7d$$u7d$$GT$17ha1d1de14dee6764bE","ax",@progbits
	.p2align	4, 0x90
	.type	_ZN4core3ptr85drop_in_place$LT$std..rt..lang_start$LT$$LP$$RP$$GT$..$u7b$$u7b$closure$u7d$$u7d$$GT$17ha1d1de14dee6764bE,@function
_ZN4core3ptr85drop_in_place$LT$std..rt..lang_start$LT$$LP$$RP$$GT$..$u7b$$u7b$closure$u7d$$u7d$$GT$17ha1d1de14dee6764bE:
.Lfunc_begin93:
	.loc	19 574 0 is_stmt 1
	.cfi_startproc
	movq	%rdi, -8(%rsp)
.Ltmp587:
	.loc	19 574 1 prologue_end
	retq
.Ltmp588:
.Lfunc_end93:
	.size	_ZN4core3ptr85drop_in_place$LT$std..rt..lang_start$LT$$LP$$RP$$GT$..$u7b$$u7b$closure$u7d$$u7d$$GT$17ha1d1de14dee6764bE, .Lfunc_end93-_ZN4core3ptr85drop_in_place$LT$std..rt..lang_start$LT$$LP$$RP$$GT$..$u7b$$u7b$closure$u7d$$u7d$$GT$17ha1d1de14dee6764bE
	.cfi_endproc

	.section	".text._ZN4core3ptr87drop_in_place$LT$core..option..Option$LT$alloc..boxed..Box$LT$$u5b$u32$u5d$$GT$$GT$$GT$17hb1b1cd7c197dd8cdE","ax",@progbits
	.p2align	4, 0x90
	.type	_ZN4core3ptr87drop_in_place$LT$core..option..Option$LT$alloc..boxed..Box$LT$$u5b$u32$u5d$$GT$$GT$$GT$17hb1b1cd7c197dd8cdE,@function
_ZN4core3ptr87drop_in_place$LT$core..option..Option$LT$alloc..boxed..Box$LT$$u5b$u32$u5d$$GT$$GT$$GT$17hb1b1cd7c197dd8cdE:
.Lfunc_begin94:
	.loc	19 574 0
	.cfi_startproc
	subq	$24, %rsp
	.cfi_def_cfa_offset 32
	movq	%rdi, 8(%rsp)
	movq	%rdi, 16(%rsp)
.Ltmp589:
	.loc	19 574 1 prologue_end
	movq	(%rdi), %rdx
	movl	$1, %eax
	xorl	%ecx, %ecx
	cmpq	$0, %rdx
	cmoveq	%rcx, %rax
	cmpq	$0, %rax
	jne	.LBB94_2
.LBB94_1:
	.loc	19 574 1 epilogue_begin is_stmt 0
	addq	$24, %rsp
	.cfi_def_cfa_offset 8
	retq
.LBB94_2:
	.cfi_def_cfa_offset 32
	.loc	19 0 1
	movq	8(%rsp), %rdi
	.loc	19 574 1
	callq	_ZN4core3ptr59drop_in_place$LT$alloc..boxed..Box$LT$$u5b$u32$u5d$$GT$$GT$17he3b6ceb66b4c7fa6E
	jmp	.LBB94_1
.Ltmp590:
.Lfunc_end94:
	.size	_ZN4core3ptr87drop_in_place$LT$core..option..Option$LT$alloc..boxed..Box$LT$$u5b$u32$u5d$$GT$$GT$$GT$17hb1b1cd7c197dd8cdE, .Lfunc_end94-_ZN4core3ptr87drop_in_place$LT$core..option..Option$LT$alloc..boxed..Box$LT$$u5b$u32$u5d$$GT$$GT$$GT$17hb1b1cd7c197dd8cdE
	.cfi_endproc

	.section	".text._ZN4core3ptr91drop_in_place$LT$core..result..Result$LT$alloc..string..String$C$std..env..VarError$GT$$GT$17h20d4811d25fb2506E","ax",@progbits
	.p2align	4, 0x90
	.type	_ZN4core3ptr91drop_in_place$LT$core..result..Result$LT$alloc..string..String$C$std..env..VarError$GT$$GT$17h20d4811d25fb2506E,@function
_ZN4core3ptr91drop_in_place$LT$core..result..Result$LT$alloc..string..String$C$std..env..VarError$GT$$GT$17h20d4811d25fb2506E:
.Lfunc_begin95:
	.loc	19 574 0 is_stmt 1
	.cfi_startproc
	subq	$24, %rsp
	.cfi_def_cfa_offset 32
	movq	%rdi, 8(%rsp)
	movq	%rdi, 16(%rsp)
.Ltmp591:
	.loc	19 574 1 prologue_end
	cmpq	$0, (%rdi)
	jne	.LBB95_2
	.loc	19 0 1 is_stmt 0
	movq	8(%rsp), %rdi
	.loc	19 574 1
	addq	$8, %rdi
	callq	_ZN4core3ptr42drop_in_place$LT$alloc..string..String$GT$17h7e3bcb296f93bb25E
	jmp	.LBB95_3
.LBB95_2:
	.loc	19 0 1
	movq	8(%rsp), %rdi
	.loc	19 574 1
	addq	$8, %rdi
	callq	_ZN4core3ptr39drop_in_place$LT$std..env..VarError$GT$17h435a5db18f83f82aE
.LBB95_3:
	.loc	19 574 1 epilogue_begin
	addq	$24, %rsp
	.cfi_def_cfa_offset 8
	retq
.Ltmp592:
.Lfunc_end95:
	.size	_ZN4core3ptr91drop_in_place$LT$core..result..Result$LT$alloc..string..String$C$std..env..VarError$GT$$GT$17h20d4811d25fb2506E, .Lfunc_end95-_ZN4core3ptr91drop_in_place$LT$core..result..Result$LT$alloc..string..String$C$std..env..VarError$GT$$GT$17h20d4811d25fb2506E
	.cfi_endproc

	.section	".text._ZN4core3ptr93drop_in_place$LT$core..result..Result$LT$std..process..Output$C$std..io..error..Error$GT$$GT$17ha7032138b156ed5cE","ax",@progbits
	.p2align	4, 0x90
	.type	_ZN4core3ptr93drop_in_place$LT$core..result..Result$LT$std..process..Output$C$std..io..error..Error$GT$$GT$17ha7032138b156ed5cE,@function
_ZN4core3ptr93drop_in_place$LT$core..result..Result$LT$std..process..Output$C$std..io..error..Error$GT$$GT$17ha7032138b156ed5cE:
.Lfunc_begin96:
	.loc	19 574 0 is_stmt 1
	.cfi_startproc
	subq	$24, %rsp
	.cfi_def_cfa_offset 32
	movq	%rdi, 8(%rsp)
	movq	%rdi, 16(%rsp)
.Ltmp593:
	.loc	19 574 1 prologue_end
	movabsq	$-9223372036854775808, %rdx
	xorl	%eax, %eax
	movl	$1, %ecx
	cmpq	%rdx, (%rdi)
	cmoveq	%rcx, %rax
	cmpq	$0, %rax
	jne	.LBB96_2
	.loc	19 0 1 is_stmt 0
	movq	8(%rsp), %rdi
	.loc	19 574 1
	callq	_ZN4core3ptr41drop_in_place$LT$std..process..Output$GT$17h64c61c9e72a1f27eE
	jmp	.LBB96_3
.LBB96_2:
	.loc	19 0 1
	movq	8(%rsp), %rdi
	.loc	19 574 1
	addq	$8, %rdi
	callq	_ZN4core3ptr42drop_in_place$LT$std..io..error..Error$GT$17he275e50c8e3ddf93E
.LBB96_3:
	.loc	19 574 1 epilogue_begin
	addq	$24, %rsp
	.cfi_def_cfa_offset 8
	retq
.Ltmp594:
.Lfunc_end96:
	.size	_ZN4core3ptr93drop_in_place$LT$core..result..Result$LT$std..process..Output$C$std..io..error..Error$GT$$GT$17ha7032138b156ed5cE, .Lfunc_end96-_ZN4core3ptr93drop_in_place$LT$core..result..Result$LT$std..process..Output$C$std..io..error..Error$GT$$GT$17ha7032138b156ed5cE
	.cfi_endproc

	.section	".text._ZN4core3ptr93drop_in_place$LT$dyn$u20$core..error..Error$u2b$core..marker..Sync$u2b$core..marker..Send$GT$17h82b8c48792d977b9E","ax",@progbits
	.p2align	4, 0x90
	.type	_ZN4core3ptr93drop_in_place$LT$dyn$u20$core..error..Error$u2b$core..marker..Sync$u2b$core..marker..Send$GT$17h82b8c48792d977b9E,@function
_ZN4core3ptr93drop_in_place$LT$dyn$u20$core..error..Error$u2b$core..marker..Sync$u2b$core..marker..Send$GT$17h82b8c48792d977b9E:
.Lfunc_begin97:
	.loc	19 574 0 is_stmt 1
	.cfi_startproc
	subq	$40, %rsp
	.cfi_def_cfa_offset 48
	movq	%rdi, 8(%rsp)
	movq	%rdi, 24(%rsp)
	movq	%rsi, 32(%rsp)
.Ltmp595:
	.loc	19 574 1 prologue_end
	movq	(%rsi), %rax
	movq	%rax, 16(%rsp)
	cmpq	$0, %rax
	je	.LBB97_2
	.loc	19 0 1 is_stmt 0
	movq	16(%rsp), %rax
	movq	8(%rsp), %rdi
	.loc	19 574 1
	callq	*%rax
.LBB97_2:
	.loc	19 574 1 epilogue_begin
	addq	$40, %rsp
	.cfi_def_cfa_offset 8
	retq
.Ltmp596:
.Lfunc_end97:
	.size	_ZN4core3ptr93drop_in_place$LT$dyn$u20$core..error..Error$u2b$core..marker..Sync$u2b$core..marker..Send$GT$17h82b8c48792d977b9E, .Lfunc_end97-_ZN4core3ptr93drop_in_place$LT$dyn$u20$core..error..Error$u2b$core..marker..Sync$u2b$core..marker..Send$GT$17h82b8c48792d977b9E
	.cfi_endproc

	.section	.text._ZN4core3str11validations15next_code_point17ha54674a4850d5a89E,"ax",@progbits
	.p2align	4, 0x90
	.type	_ZN4core3str11validations15next_code_point17ha54674a4850d5a89E,@function
_ZN4core3str11validations15next_code_point17ha54674a4850d5a89E:
.Lfunc_begin98:
	.file	48 "/rustc/90b35a6239c3d8bdabc530a6a0816f7ff89a0aaf/library/core/src/str" "validations.rs"
	.loc	48 35 0 is_stmt 1
	.cfi_startproc
	subq	$184, %rsp
	.cfi_def_cfa_offset 192
	movq	%rdi, 24(%rsp)
	movq	%rdi, 88(%rsp)
.Ltmp597:
	.loc	48 10 36 prologue_end
	movl	$2, 100(%rsp)
.Ltmp598:
	.loc	48 37 14
	callq	_ZN91_$LT$core..slice..iter..Iter$LT$T$GT$$u20$as$u20$core..iter..traits..iterator..Iterator$GT$4next17hf284901ff76cfbe5E
	movq	%rax, 48(%rsp)
.Ltmp599:
	.loc	2 2484 15
	movq	48(%rsp), %rdx
	movl	$1, %eax
	xorl	%ecx, %ecx
	cmpq	$0, %rdx
	cmoveq	%rcx, %rax
	.loc	2 2484 9 is_stmt 0
	cmpq	$0, %rax
	jne	.LBB98_2
.Ltmp600:
	.loc	2 2498 21 is_stmt 1
	movl	.L__unnamed_16(%rip), %ecx
	movl	.L__unnamed_16+4(%rip), %eax
	movl	%ecx, 32(%rsp)
	movl	%eax, 36(%rsp)
.Ltmp601:
	.loc	25 0 0 is_stmt 0
	jmp	.LBB98_3
.LBB98_2:
.Ltmp602:
	.loc	2 2485 18 is_stmt 1
	movq	48(%rsp), %rax
	movq	%rax, 104(%rsp)
.Ltmp603:
	.loc	2 2485 24 is_stmt 0
	movq	%rax, 40(%rsp)
.Ltmp604:
	.loc	48 37 14 is_stmt 1
	movq	40(%rsp), %rax
	movq	%rax, 112(%rsp)
	.loc	48 37 13 is_stmt 0
	movb	(%rax), %al
	movb	%al, 23(%rsp)
	movb	%al, 123(%rsp)
.Ltmp605:
	.loc	48 38 8 is_stmt 1
	cmpb	$-128, %al
	jb	.LBB98_5
	jmp	.LBB98_4
.Ltmp606:
.LBB98_3:
	.loc	48 69 2
	movl	32(%rsp), %eax
	movl	36(%rsp), %edx
	.loc	48 69 2 epilogue_begin is_stmt 0
	addq	$184, %rsp
	.cfi_def_cfa_offset 8
	retq
.LBB98_4:
	.cfi_def_cfa_offset 192
	.loc	48 0 2
	movq	24(%rsp), %rdi
	movb	23(%rsp), %al
.Ltmp607:
	.loc	48 11 5 is_stmt 1
	andb	$31, %al
	movzbl	%al, %eax
	movl	%eax, 16(%rsp)
	movl	%eax, 124(%rsp)
.Ltmp608:
	.loc	48 48 23
	callq	_ZN91_$LT$core..slice..iter..Iter$LT$T$GT$$u20$as$u20$core..iter..traits..iterator..Iterator$GT$4next17hf284901ff76cfbe5E
	movq	%rax, 56(%rsp)
.Ltmp609:
	.loc	2 1078 15
	movq	56(%rsp), %rdx
	movl	$1, %eax
	xorl	%ecx, %ecx
	cmpq	$0, %rdx
	cmoveq	%rcx, %rax
	.loc	2 1078 9 is_stmt 0
	cmpq	$0, %rax
	je	.LBB98_6
	jmp	.LBB98_7
.Ltmp610:
.LBB98_5:
	.loc	2 0 9
	movb	23(%rsp), %al
	.loc	48 39 21 is_stmt 1
	movzbl	%al, %eax
	.loc	48 39 16 is_stmt 0
	movl	%eax, 36(%rsp)
	movl	$1, 32(%rsp)
	.loc	25 0 0
	jmp	.LBB98_3
.LBB98_6:
.Ltmp611:
	.loc	3 77 17 is_stmt 1
	callq	_ZN4core4hint21unreachable_unchecked18precondition_check17h5dfa1f1e1ae9df1dE
	jmp	.LBB98_8
.Ltmp612:
.LBB98_7:
	.loc	3 0 17 is_stmt 0
	movb	23(%rsp), %al
	movl	16(%rsp), %ecx
	.loc	2 1079 18 is_stmt 1
	movq	56(%rsp), %rdx
	movq	%rdx, 128(%rsp)
.Ltmp613:
	.loc	48 48 22
	movb	(%rdx), %dl
	movb	%dl, 15(%rsp)
	movb	%dl, 143(%rsp)
.Ltmp614:
	.loc	48 17 5
	shll	$6, %ecx
	.loc	48 17 17 is_stmt 0
	andb	$63, %dl
	movzbl	%dl, %edx
	.loc	48 17 5
	orl	%edx, %ecx
	movl	%ecx, 68(%rsp)
.Ltmp615:
	.loc	48 50 8 is_stmt 1
	cmpb	$-32, %al
	jae	.LBB98_10
	jmp	.LBB98_9
.Ltmp616:
.LBB98_8:
	.loc	25 0 0 is_stmt 0
	ud2
.LBB98_9:
.Ltmp617:
	.loc	48 68 10 is_stmt 1
	movl	68(%rsp), %eax
	.loc	48 68 5 is_stmt 0
	movl	%eax, 36(%rsp)
	movl	$1, 32(%rsp)
.Ltmp618:
	.loc	48 69 2 is_stmt 1
	jmp	.LBB98_3
.LBB98_10:
	.loc	48 0 2 is_stmt 0
	movq	24(%rsp), %rdi
.Ltmp619:
	.loc	48 55 27 is_stmt 1
	callq	_ZN91_$LT$core..slice..iter..Iter$LT$T$GT$$u20$as$u20$core..iter..traits..iterator..Iterator$GT$4next17hf284901ff76cfbe5E
	movq	%rax, 72(%rsp)
.Ltmp620:
	.loc	2 1078 15
	movq	72(%rsp), %rdx
	movl	$1, %eax
	xorl	%ecx, %ecx
	cmpq	$0, %rdx
	cmoveq	%rcx, %rax
	.loc	2 1078 9 is_stmt 0
	cmpq	$0, %rax
	jne	.LBB98_12
.Ltmp621:
	.loc	3 77 17 is_stmt 1
	callq	_ZN4core4hint21unreachable_unchecked18precondition_check17h5dfa1f1e1ae9df1dE
	jmp	.LBB98_8
.Ltmp622:
.LBB98_12:
	.loc	3 0 17 is_stmt 0
	movb	23(%rsp), %al
	movl	16(%rsp), %ecx
	movb	15(%rsp), %dl
	.loc	2 1079 18 is_stmt 1
	movq	72(%rsp), %rsi
	movq	%rsi, 144(%rsp)
.Ltmp623:
	.loc	48 55 26
	movb	(%rsi), %sil
	movb	%sil, 159(%rsp)
.Ltmp624:
	.loc	48 56 38
	andb	$63, %dl
	movzbl	%dl, %edx
	movl	%edx, 160(%rsp)
.Ltmp625:
	.loc	48 17 5
	shll	$6, %edx
	.loc	48 17 17 is_stmt 0
	andb	$63, %sil
	movzbl	%sil, %esi
	.loc	48 17 5
	orl	%esi, %edx
	movl	%edx, 8(%rsp)
	movl	%edx, 164(%rsp)
.Ltmp626:
	.loc	48 57 14 is_stmt 1
	shll	$12, %ecx
	.loc	48 57 9 is_stmt 0
	orl	%edx, %ecx
	movl	%ecx, 68(%rsp)
	.loc	48 58 12 is_stmt 1
	cmpb	$-16, %al
	jae	.LBB98_14
.Ltmp627:
.LBB98_13:
	.loc	48 50 5
	jmp	.LBB98_9
.LBB98_14:
	.loc	48 0 5 is_stmt 0
	movq	24(%rsp), %rdi
.Ltmp628:
	.loc	48 63 31 is_stmt 1
	callq	_ZN91_$LT$core..slice..iter..Iter$LT$T$GT$$u20$as$u20$core..iter..traits..iterator..Iterator$GT$4next17hf284901ff76cfbe5E
	movq	%rax, 80(%rsp)
.Ltmp629:
	.loc	2 1078 15
	movq	80(%rsp), %rdx
	movl	$1, %eax
	xorl	%ecx, %ecx
	cmpq	$0, %rdx
	cmoveq	%rcx, %rax
	.loc	2 1078 9 is_stmt 0
	cmpq	$0, %rax
	jne	.LBB98_16
.Ltmp630:
	.loc	3 77 17 is_stmt 1
	callq	_ZN4core4hint21unreachable_unchecked18precondition_check17h5dfa1f1e1ae9df1dE
	jmp	.LBB98_8
.Ltmp631:
.LBB98_16:
	.loc	3 0 17 is_stmt 0
	movl	8(%rsp), %ecx
	movl	16(%rsp), %eax
	.loc	2 1079 18 is_stmt 1
	movq	80(%rsp), %rdx
	movq	%rdx, 168(%rsp)
.Ltmp632:
	.loc	48 63 30
	movb	(%rdx), %dl
	movb	%dl, 183(%rsp)
.Ltmp633:
	.loc	48 64 18
	andl	$7, %eax
	shll	$18, %eax
.Ltmp634:
	.loc	48 17 5
	shll	$6, %ecx
	.loc	48 17 17 is_stmt 0
	andb	$63, %dl
	movzbl	%dl, %edx
	.loc	48 17 5
	orl	%edx, %ecx
.Ltmp635:
	.loc	48 64 13 is_stmt 1
	orl	%ecx, %eax
	movl	%eax, 68(%rsp)
.Ltmp636:
	.loc	48 58 9
	jmp	.LBB98_13
.Ltmp637:
.Lfunc_end98:
	.size	_ZN4core3str11validations15next_code_point17ha54674a4850d5a89E, .Lfunc_end98-_ZN4core3str11validations15next_code_point17ha54674a4850d5a89E
	.cfi_endproc

	.section	.text._ZN4core3str11validations23next_code_point_reverse17hdc16dd62557ef3a9E,"ax",@progbits
	.p2align	4, 0x90
	.type	_ZN4core3str11validations23next_code_point_reverse17hdc16dd62557ef3a9E,@function
_ZN4core3str11validations23next_code_point_reverse17hdc16dd62557ef3a9E:
.Lfunc_begin99:
	.loc	48 78 0
	.cfi_startproc
	subq	$184, %rsp
	.cfi_def_cfa_offset 192
	movq	%rdi, 16(%rsp)
	movq	%rdi, 80(%rsp)
.Ltmp638:
	.loc	48 10 36 prologue_end
	movl	$2, 92(%rsp)
.Ltmp639:
	.loc	48 10 36 is_stmt 0
	movl	$3, 96(%rsp)
.Ltmp640:
	.loc	48 10 36
	movl	$4, 100(%rsp)
.Ltmp641:
	.loc	48 83 20 is_stmt 1
	callq	_ZN106_$LT$core..slice..iter..Iter$LT$T$GT$$u20$as$u20$core..iter..traits..double_ended..DoubleEndedIterator$GT$9next_back17h6ed9ef1ac59bb78fE
	movq	%rax, 40(%rsp)
.Ltmp642:
	.loc	2 2484 15
	movq	40(%rsp), %rdx
	movl	$1, %eax
	xorl	%ecx, %ecx
	cmpq	$0, %rdx
	cmoveq	%rcx, %rax
	.loc	2 2484 9 is_stmt 0
	cmpq	$0, %rax
	jne	.LBB99_2
.Ltmp643:
	.loc	2 2498 21 is_stmt 1
	movl	.L__unnamed_16(%rip), %ecx
	movl	.L__unnamed_16+4(%rip), %eax
	movl	%ecx, 24(%rsp)
	movl	%eax, 28(%rsp)
.Ltmp644:
	.loc	25 0 0 is_stmt 0
	jmp	.LBB99_3
.LBB99_2:
.Ltmp645:
	.loc	2 2485 18 is_stmt 1
	movq	40(%rsp), %rax
	movq	%rax, 104(%rsp)
.Ltmp646:
	.loc	2 2485 24 is_stmt 0
	movq	%rax, 32(%rsp)
.Ltmp647:
	.loc	48 83 20 is_stmt 1
	movq	32(%rsp), %rax
	movq	%rax, 112(%rsp)
	.loc	48 84 22
	movb	(%rax), %al
	movb	%al, 15(%rsp)
	movb	%al, 127(%rsp)
	cmpb	$-128, %al
	jb	.LBB99_5
	jmp	.LBB99_4
.LBB99_3:
	.loc	48 112 2
	jmp	.LBB99_19
.LBB99_4:
	.loc	48 0 2 is_stmt 0
	movq	16(%rsp), %rdi
.Ltmp648:
	.loc	48 93 23 is_stmt 1
	callq	_ZN106_$LT$core..slice..iter..Iter$LT$T$GT$$u20$as$u20$core..iter..traits..double_ended..DoubleEndedIterator$GT$9next_back17h6ed9ef1ac59bb78fE
	movq	%rax, 56(%rsp)
.Ltmp649:
	.loc	2 1078 15
	movq	56(%rsp), %rdx
	movl	$1, %eax
	xorl	%ecx, %ecx
	cmpq	$0, %rdx
	cmoveq	%rcx, %rax
	.loc	2 1078 9 is_stmt 0
	cmpq	$0, %rax
	je	.LBB99_6
	jmp	.LBB99_7
.Ltmp650:
.LBB99_5:
	.loc	2 0 9
	movb	15(%rsp), %al
.Ltmp651:
	.loc	48 84 53 is_stmt 1
	movzbl	%al, %eax
	.loc	48 84 48 is_stmt 0
	movl	%eax, 28(%rsp)
	movl	$1, 24(%rsp)
.Ltmp652:
	.loc	25 0 0
	jmp	.LBB99_3
.LBB99_6:
.Ltmp653:
	.loc	3 77 17 is_stmt 1
	callq	_ZN4core4hint21unreachable_unchecked18precondition_check17h5dfa1f1e1ae9df1dE
	jmp	.LBB99_8
.Ltmp654:
.LBB99_7:
	.loc	2 1079 18
	movq	56(%rsp), %rax
	movq	%rax, 128(%rsp)
.Ltmp655:
	.loc	48 93 22
	movb	(%rax), %al
	movb	%al, 14(%rsp)
	movb	%al, 143(%rsp)
.Ltmp656:
	.loc	48 11 5
	movb	%al, %cl
	andb	$31, %cl
	movzbl	%cl, %ecx
.Ltmp657:
	.loc	48 94 5
	movl	%ecx, 52(%rsp)
.Ltmp658:
	.loc	48 24 5
	cmpb	$-64, %al
.Ltmp659:
	.loc	48 95 8
	jl	.LBB99_10
	jmp	.LBB99_9
.Ltmp660:
.LBB99_8:
	.loc	25 0 0 is_stmt 0
	ud2
.LBB99_9:
.Ltmp661:
	.loc	48 95 5
	jmp	.LBB99_11
.LBB99_10:
	.loc	48 0 5
	movq	16(%rsp), %rdi
	.loc	48 98 27 is_stmt 1
	callq	_ZN106_$LT$core..slice..iter..Iter$LT$T$GT$$u20$as$u20$core..iter..traits..double_ended..DoubleEndedIterator$GT$9next_back17h6ed9ef1ac59bb78fE
	movq	%rax, 64(%rsp)
.Ltmp662:
	.loc	2 1078 15
	movq	64(%rsp), %rdx
	movl	$1, %eax
	xorl	%ecx, %ecx
	cmpq	$0, %rdx
	cmoveq	%rcx, %rax
	.loc	2 1078 9 is_stmt 0
	cmpq	$0, %rax
	je	.LBB99_12
	jmp	.LBB99_13
.Ltmp663:
.LBB99_11:
	.loc	2 0 9
	movb	15(%rsp), %cl
	.loc	48 109 29 is_stmt 1
	movl	52(%rsp), %eax
	movl	%eax, 180(%rsp)
.Ltmp664:
	.loc	48 17 5
	shll	$6, %eax
	.loc	48 17 17 is_stmt 0
	andb	$63, %cl
	movzbl	%cl, %ecx
	.loc	48 17 5
	orl	%ecx, %eax
.Ltmp665:
	.loc	48 109 5 is_stmt 1
	movl	%eax, 52(%rsp)
	.loc	48 111 10
	movl	52(%rsp), %eax
	.loc	48 111 5 is_stmt 0
	movl	%eax, 28(%rsp)
	movl	$1, 24(%rsp)
.Ltmp666:
	.loc	48 112 2 is_stmt 1
	jmp	.LBB99_19
.LBB99_12:
.Ltmp667:
	.loc	3 77 17
	callq	_ZN4core4hint21unreachable_unchecked18precondition_check17h5dfa1f1e1ae9df1dE
	jmp	.LBB99_8
.Ltmp668:
.LBB99_13:
	.loc	2 1079 18
	movq	64(%rsp), %rax
	movq	%rax, 144(%rsp)
.Ltmp669:
	.loc	48 98 26
	movb	(%rax), %al
	movb	%al, 13(%rsp)
	movb	%al, 159(%rsp)
.Ltmp670:
	.loc	48 11 5
	movb	%al, %cl
	andb	$15, %cl
	movzbl	%cl, %ecx
.Ltmp671:
	.loc	48 99 9
	movl	%ecx, 52(%rsp)
.Ltmp672:
	.loc	48 24 5
	cmpb	$-64, %al
.Ltmp673:
	.loc	48 100 12
	jl	.LBB99_15
	.loc	48 100 9 is_stmt 0
	jmp	.LBB99_16
.LBB99_15:
	.loc	48 0 9
	movq	16(%rsp), %rdi
	.loc	48 103 31 is_stmt 1
	callq	_ZN106_$LT$core..slice..iter..Iter$LT$T$GT$$u20$as$u20$core..iter..traits..double_ended..DoubleEndedIterator$GT$9next_back17h6ed9ef1ac59bb78fE
	movq	%rax, 72(%rsp)
.Ltmp674:
	.loc	2 1078 15
	movq	72(%rsp), %rdx
	movl	$1, %eax
	xorl	%ecx, %ecx
	cmpq	$0, %rdx
	cmoveq	%rcx, %rax
	.loc	2 1078 9 is_stmt 0
	cmpq	$0, %rax
	je	.LBB99_17
	jmp	.LBB99_18
.Ltmp675:
.LBB99_16:
	.loc	2 0 9
	movb	14(%rsp), %cl
	.loc	48 107 33 is_stmt 1
	movl	52(%rsp), %eax
	movl	%eax, 176(%rsp)
.Ltmp676:
	.loc	48 17 5
	shll	$6, %eax
	.loc	48 17 17 is_stmt 0
	andb	$63, %cl
	movzbl	%cl, %ecx
	.loc	48 17 5
	orl	%ecx, %eax
.Ltmp677:
	.loc	48 107 9 is_stmt 1
	movl	%eax, 52(%rsp)
.Ltmp678:
	.loc	48 95 5
	jmp	.LBB99_11
.LBB99_17:
.Ltmp679:
	.loc	3 77 17
	callq	_ZN4core4hint21unreachable_unchecked18precondition_check17h5dfa1f1e1ae9df1dE
	jmp	.LBB99_8
.Ltmp680:
.LBB99_18:
	.loc	3 0 17 is_stmt 0
	movb	13(%rsp), %cl
	.loc	2 1079 18 is_stmt 1
	movq	72(%rsp), %rax
	movq	%rax, 160(%rsp)
.Ltmp681:
	.loc	48 103 30
	movb	(%rax), %al
	movb	%al, 171(%rsp)
.Ltmp682:
	.loc	48 11 5
	andb	$7, %al
	movzbl	%al, %eax
.Ltmp683:
	.loc	48 104 13
	movl	%eax, 52(%rsp)
	.loc	48 105 37
	movl	52(%rsp), %eax
	movl	%eax, 172(%rsp)
.Ltmp684:
	.loc	48 17 5
	shll	$6, %eax
	.loc	48 17 17 is_stmt 0
	andb	$63, %cl
	movzbl	%cl, %ecx
	.loc	48 17 5
	orl	%ecx, %eax
.Ltmp685:
	.loc	48 105 13 is_stmt 1
	movl	%eax, 52(%rsp)
.Ltmp686:
	.loc	48 100 9
	jmp	.LBB99_16
.Ltmp687:
.LBB99_19:
	.loc	48 112 2
	movl	24(%rsp), %eax
	movl	28(%rsp), %edx
	.loc	48 112 2 epilogue_begin is_stmt 0
	addq	$184, %rsp
	.cfi_def_cfa_offset 8
	retq
.Ltmp688:
.Lfunc_end99:
	.size	_ZN4core3str11validations23next_code_point_reverse17hdc16dd62557ef3a9E, .Lfunc_end99-_ZN4core3str11validations23next_code_point_reverse17hdc16dd62557ef3a9E
	.cfi_endproc

	.section	".text._ZN4core3str21_$LT$impl$u20$str$GT$11starts_with17ha0b19f229031b306E","ax",@progbits
	.p2align	4, 0x90
	.type	_ZN4core3str21_$LT$impl$u20$str$GT$11starts_with17ha0b19f229031b306E,@function
_ZN4core3str21_$LT$impl$u20$str$GT$11starts_with17ha0b19f229031b306E:
.Lfunc_begin100:
	.loc	33 1164 0 is_stmt 1
	.cfi_startproc
	subq	$56, %rsp
	.cfi_def_cfa_offset 64
	movq	%rcx, 8(%rsp)
	movq	%rdx, 16(%rsp)
	movq	%rsi, %rcx
	movq	8(%rsp), %rsi
	movq	%rdi, %rdx
	movq	16(%rsp), %rdi
	movq	%rdx, 24(%rsp)
	movq	%rcx, 32(%rsp)
	movq	%rdi, 40(%rsp)
	movq	%rsi, 48(%rsp)
.Ltmp689:
	.loc	33 1165 9 prologue_end
	callq	_ZN55_$LT$$RF$str$u20$as$u20$core..str..pattern..Pattern$GT$12is_prefix_of17h3fbd337ae8aaa7d2E
	.loc	33 1166 6
	andb	$1, %al
	.loc	33 1166 6 epilogue_begin is_stmt 0
	addq	$56, %rsp
	.cfi_def_cfa_offset 8
	retq
.Ltmp690:
.Lfunc_end100:
	.size	_ZN4core3str21_$LT$impl$u20$str$GT$11starts_with17ha0b19f229031b306E, .Lfunc_end100-_ZN4core3str21_$LT$impl$u20$str$GT$11starts_with17ha0b19f229031b306E
	.cfi_endproc

	.section	".text._ZN4core3str21_$LT$impl$u20$str$GT$12trim_matches17ha017048aa53035d9E","ax",@progbits
	.p2align	4, 0x90
	.type	_ZN4core3str21_$LT$impl$u20$str$GT$12trim_matches17ha017048aa53035d9E,@function
_ZN4core3str21_$LT$impl$u20$str$GT$12trim_matches17ha017048aa53035d9E:
.Lfunc_begin101:
	.loc	33 2114 0 is_stmt 1
	.cfi_startproc
	.cfi_personality 155, DW.ref.rust_eh_personality
	.cfi_lsda 27, .Lexception20
	subq	$264, %rsp
	.cfi_def_cfa_offset 272
	movq	%rsi, %rdx
	movq	%rdi, %rsi
	movq	%rsi, 16(%rsp)
	movq	%rdx, 24(%rsp)
	movq	%rsi, 144(%rsp)
	movq	%rdx, 152(%rsp)
.Ltmp696:
	.loc	33 2118 21 prologue_end
	movq	$0, 40(%rsp)
.Ltmp697:
	.loc	33 2119 21
	movq	$0, 48(%rsp)
	leaq	56(%rsp), %rdi
	movq	%rdi, 32(%rsp)
.Ltmp698:
	.loc	33 2120 27
	callq	_ZN49_$LT$F$u20$as$u20$core..str..pattern..Pattern$GT$13into_searcher17h70a3a3a13f779308E
	movq	32(%rsp), %rsi
.Ltmp691:
	leaq	96(%rsp), %rdi
.Ltmp699:
	.loc	33 2121 31
	callq	_ZN99_$LT$core..str..pattern..CharPredicateSearcher$LT$F$GT$$u20$as$u20$core..str..pattern..Searcher$GT$11next_reject17hd3ce71f8b09e068eE
.Ltmp692:
	jmp	.LBB101_3
.Ltmp700:
.LBB101_1:
	.loc	33 2114 5
	movq	168(%rsp), %rdi
	callq	_Unwind_Resume@PLT
.LBB101_2:
.Ltmp695:
	.loc	33 0 5 is_stmt 0
	movq	%rax, %rcx
	movl	%edx, %eax
	movq	%rcx, 168(%rsp)
	movl	%eax, 176(%rsp)
	jmp	.LBB101_1
.LBB101_3:
.Ltmp701:
	.loc	33 2121 16 is_stmt 1
	cmpq	$1, 96(%rsp)
	jne	.LBB101_5
	.loc	33 2121 22 is_stmt 0
	movq	104(%rsp), %rcx
	movq	%rcx, 184(%rsp)
	.loc	33 2121 25
	movq	112(%rsp), %rax
	movq	%rax, 192(%rsp)
	.loc	33 2122 13 is_stmt 1
	movq	%rcx, 40(%rsp)
	.loc	33 2123 13
	movq	%rax, 48(%rsp)
.Ltmp702:
.LBB101_5:
.Ltmp693:
	.loc	33 0 13 is_stmt 0
	leaq	120(%rsp), %rdi
	leaq	56(%rsp), %rsi
.Ltmp703:
	.loc	33 2126 31 is_stmt 1
	callq	_ZN106_$LT$core..str..pattern..CharPredicateSearcher$LT$F$GT$$u20$as$u20$core..str..pattern..ReverseSearcher$GT$16next_reject_back17hd7656b6d2a12be48E
.Ltmp694:
	jmp	.LBB101_6
.LBB101_6:
	.loc	33 2126 16 is_stmt 0
	cmpq	$1, 120(%rsp)
	jne	.LBB101_8
	.loc	33 2126 25
	movq	136(%rsp), %rax
	movq	%rax, 200(%rsp)
	.loc	33 2127 13 is_stmt 1
	movq	%rax, 48(%rsp)
.Ltmp704:
.LBB101_8:
	.loc	33 0 13 is_stmt 0
	movq	24(%rsp), %rax
	movq	16(%rsp), %rcx
	.loc	33 2130 37 is_stmt 1
	movq	40(%rsp), %rdx
	movq	%rdx, (%rsp)
	movq	%rdx, 208(%rsp)
	.loc	33 2130 40 is_stmt 0
	movq	48(%rsp), %rdx
	movq	%rdx, 8(%rsp)
	movq	%rdx, 216(%rsp)
.Ltmp705:
	.file	49 "/rustc/90b35a6239c3d8bdabc530a6a0816f7ff89a0aaf/library/core/src/str" "traits.rs"
	.loc	49 190 21 is_stmt 1
	movq	%rcx, 224(%rsp)
	movq	%rax, 232(%rsp)
	.loc	49 0 21 is_stmt 0
	movq	(%rsp), %rcx
	movq	16(%rsp), %rax
	movq	8(%rsp), %rdx
.Ltmp706:
	.loc	49 211 27 is_stmt 1
	subq	%rcx, %rdx
	movq	%rdx, 240(%rsp)
.Ltmp707:
	.loc	7 1681 9
	movq	%rax, 248(%rsp)
.Ltmp708:
	.loc	7 921 18
	addq	%rcx, %rax
	movq	%rax, 256(%rsp)
.Ltmp709:
	.loc	33 2131 6 epilogue_begin
	addq	$264, %rsp
	.cfi_def_cfa_offset 8
	retq
.Ltmp710:
.Lfunc_end101:
	.size	_ZN4core3str21_$LT$impl$u20$str$GT$12trim_matches17ha017048aa53035d9E, .Lfunc_end101-_ZN4core3str21_$LT$impl$u20$str$GT$12trim_matches17ha017048aa53035d9E
	.cfi_endproc
	.section	".gcc_except_table._ZN4core3str21_$LT$impl$u20$str$GT$12trim_matches17ha017048aa53035d9E","a",@progbits
	.p2align	2, 0x0
GCC_except_table101:
.Lexception20:
	.byte	255
	.byte	255
	.byte	1
	.uleb128 .Lcst_end20-.Lcst_begin20
.Lcst_begin20:
	.uleb128 .Lfunc_begin101-.Lfunc_begin101
	.uleb128 .Ltmp691-.Lfunc_begin101
	.byte	0
	.byte	0
	.uleb128 .Ltmp691-.Lfunc_begin101
	.uleb128 .Ltmp692-.Ltmp691
	.uleb128 .Ltmp695-.Lfunc_begin101
	.byte	0
	.uleb128 .Ltmp692-.Lfunc_begin101
	.uleb128 .Ltmp693-.Ltmp692
	.byte	0
	.byte	0
	.uleb128 .Ltmp693-.Lfunc_begin101
	.uleb128 .Ltmp694-.Ltmp693
	.uleb128 .Ltmp695-.Lfunc_begin101
	.byte	0
.Lcst_end20:
	.p2align	2, 0x0

	.section	".text._ZN4core3str21_$LT$impl$u20$str$GT$4trim17h8fd7bd356ab5bc23E","ax",@progbits
	.p2align	4, 0x90
	.type	_ZN4core3str21_$LT$impl$u20$str$GT$4trim17h8fd7bd356ab5bc23E,@function
_ZN4core3str21_$LT$impl$u20$str$GT$4trim17h8fd7bd356ab5bc23E:
.Lfunc_begin102:
	.loc	33 1923 0
	.cfi_startproc
	subq	$24, %rsp
	.cfi_def_cfa_offset 32
	movq	%rdi, 8(%rsp)
	movq	%rsi, 16(%rsp)
.Ltmp711:
	.loc	33 1924 9 prologue_end
	callq	_ZN4core3str21_$LT$impl$u20$str$GT$12trim_matches17ha017048aa53035d9E
	.loc	33 1925 6 epilogue_begin
	addq	$24, %rsp
	.cfi_def_cfa_offset 8
	retq
.Ltmp712:
.Lfunc_end102:
	.size	_ZN4core3str21_$LT$impl$u20$str$GT$4trim17h8fd7bd356ab5bc23E, .Lfunc_end102-_ZN4core3str21_$LT$impl$u20$str$GT$4trim17h8fd7bd356ab5bc23E
	.cfi_endproc

	.section	".text._ZN4core3str21_$LT$impl$u20$str$GT$4trim28_$u7b$$u7b$closure$u7d$$u7d$17h415bdc903b64dc6aE","ax",@progbits
	.p2align	4, 0x90
	.type	_ZN4core3str21_$LT$impl$u20$str$GT$4trim28_$u7b$$u7b$closure$u7d$$u7d$17h415bdc903b64dc6aE,@function
_ZN4core3str21_$LT$impl$u20$str$GT$4trim28_$u7b$$u7b$closure$u7d$$u7d$17h415bdc903b64dc6aE:
.Lfunc_begin103:
	.loc	33 1924 0
	.cfi_startproc
	subq	$24, %rsp
	.cfi_def_cfa_offset 32
	movl	%esi, (%rsp)
	movq	%rdi, 8(%rsp)
	movl	%esi, 20(%rsp)
.Ltmp713:
	.loc	9 861 9 prologue_end
	cmpl	$32, %esi
	jne	.LBB103_2
.LBB103_1:
	.loc	9 862 38
	movb	$1, 7(%rsp)
	jmp	.LBB103_8
.LBB103_2:
	.loc	9 0 38 is_stmt 0
	movl	(%rsp), %ecx
	.loc	9 862 19
	movl	$9, %eax
	cmpl	%ecx, %eax
	jbe	.LBB103_4
.LBB103_3:
	.loc	9 0 19
	movl	(%rsp), %eax
.Ltmp714:
	.loc	9 863 18 is_stmt 1
	cmpl	$127, %eax
	ja	.LBB103_6
	jmp	.LBB103_5
.Ltmp715:
.LBB103_4:
	.loc	9 0 18 is_stmt 0
	movl	(%rsp), %eax
	.loc	9 862 19 is_stmt 1
	cmpl	$13, %eax
	jbe	.LBB103_1
	jmp	.LBB103_3
.LBB103_5:
.Ltmp716:
	.loc	9 863 18
	movb	$0, 7(%rsp)
	jmp	.LBB103_7
.LBB103_6:
	.loc	9 0 18 is_stmt 0
	movl	(%rsp), %edi
	.loc	9 863 32
	callq	_ZN4core7unicode12unicode_data11white_space6lookup17hede1ddb0bb985719E
	andb	$1, %al
	movb	%al, 7(%rsp)
.Ltmp717:
.LBB103_7:
	.loc	9 863 54
	jmp	.LBB103_8
.Ltmp718:
.LBB103_8:
	.loc	33 1924 54 is_stmt 1
	movb	7(%rsp), %al
	andb	$1, %al
	.loc	33 1924 54 epilogue_begin is_stmt 0
	addq	$24, %rsp
	.cfi_def_cfa_offset 8
	retq
.Ltmp719:
.Lfunc_end103:
	.size	_ZN4core3str21_$LT$impl$u20$str$GT$4trim28_$u7b$$u7b$closure$u7d$$u7d$17h415bdc903b64dc6aE, .Lfunc_end103-_ZN4core3str21_$LT$impl$u20$str$GT$4trim28_$u7b$$u7b$closure$u7d$$u7d$17h415bdc903b64dc6aE
	.cfi_endproc

	.section	".text._ZN4core3str21_$LT$impl$u20$str$GT$5chars17ha003d0188d7fabbdE","ax",@progbits
	.p2align	4, 0x90
	.type	_ZN4core3str21_$LT$impl$u20$str$GT$5chars17ha003d0188d7fabbdE,@function
_ZN4core3str21_$LT$impl$u20$str$GT$5chars17ha003d0188d7fabbdE:
.Lfunc_begin104:
	.loc	33 839 0 is_stmt 1
	.cfi_startproc
	movq	%rdi, %rax
	movq	%rax, -80(%rsp)
	movq	%rsi, -72(%rsp)
.Ltmp720:
	.loc	33 302 18 prologue_end
	movq	%rax, -64(%rsp)
	movq	%rsi, -56(%rsp)
.Ltmp721:
	.file	50 "/rustc/90b35a6239c3d8bdabc530a6a0816f7ff89a0aaf/library/core/src/slice" "iter.rs"
	.loc	50 91 19
	movq	%rsi, -48(%rsp)
.Ltmp722:
	.loc	5 1767 18
	movq	%rax, -40(%rsp)
	movq	%rsi, -32(%rsp)
.Ltmp723:
	.loc	5 427 18
	movq	%rax, -24(%rsp)
.Ltmp724:
	.loc	5 329 9
	movq	%rax, -16(%rsp)
.Ltmp725:
	.loc	17 1005 18
	movq	%rax, %rdx
	addq	%rsi, %rdx
.Ltmp726:
	.loc	50 96 63
	movq	%rdx, -8(%rsp)
.Ltmp727:
	.loc	33 841 6
	retq
.Ltmp728:
.Lfunc_end104:
	.size	_ZN4core3str21_$LT$impl$u20$str$GT$5chars17ha003d0188d7fabbdE, .Lfunc_end104-_ZN4core3str21_$LT$impl$u20$str$GT$5chars17ha003d0188d7fabbdE
	.cfi_endproc

	.section	".text._ZN4core3str21_$LT$impl$u20$str$GT$5parse17h03f5ffb5e971ca28E","ax",@progbits
	.p2align	4, 0x90
	.type	_ZN4core3str21_$LT$impl$u20$str$GT$5parse17h03f5ffb5e971ca28E,@function
_ZN4core3str21_$LT$impl$u20$str$GT$5parse17h03f5ffb5e971ca28E:
.Lfunc_begin105:
	.loc	33 2403 0
	.cfi_startproc
	subq	$40, %rsp
	.cfi_def_cfa_offset 48
	movq	%rdi, 16(%rsp)
	movq	%rsi, 24(%rsp)
.Ltmp729:
	.loc	33 2404 9 prologue_end
	callq	*_ZN4core3num60_$LT$impl$u20$core..str..traits..FromStr$u20$for$u20$u32$GT$8from_str17hb39318080bcd796dE@GOTPCREL(%rip)
	movq	%rax, 32(%rsp)
	movq	32(%rsp), %rax
	movq	%rax, 8(%rsp)
	.loc	33 2405 6
	movq	8(%rsp), %rax
	.loc	33 2405 6 epilogue_begin is_stmt 0
	addq	$40, %rsp
	.cfi_def_cfa_offset 8
	retq
.Ltmp730:
.Lfunc_end105:
	.size	_ZN4core3str21_$LT$impl$u20$str$GT$5parse17h03f5ffb5e971ca28E, .Lfunc_end105-_ZN4core3str21_$LT$impl$u20$str$GT$5parse17h03f5ffb5e971ca28E
	.cfi_endproc

	.section	".text._ZN4core3str21_$LT$impl$u20$str$GT$5parse17h0b8e1d3ede83507cE","ax",@progbits
	.p2align	4, 0x90
	.type	_ZN4core3str21_$LT$impl$u20$str$GT$5parse17h0b8e1d3ede83507cE,@function
_ZN4core3str21_$LT$impl$u20$str$GT$5parse17h0b8e1d3ede83507cE:
.Lfunc_begin106:
	.loc	33 2403 0 is_stmt 1
	.cfi_startproc
	subq	$40, %rsp
	.cfi_def_cfa_offset 48
	movq	%rdi, 16(%rsp)
	movq	%rsi, 24(%rsp)
.Ltmp731:
	.loc	33 2404 9 prologue_end
	callq	*_ZN4core3num60_$LT$impl$u20$core..str..traits..FromStr$u20$for$u20$i32$GT$8from_str17hafe9113bf565afd3E@GOTPCREL(%rip)
	movq	%rax, 32(%rsp)
	movq	32(%rsp), %rax
	movq	%rax, 8(%rsp)
	.loc	33 2405 6
	movq	8(%rsp), %rax
	.loc	33 2405 6 epilogue_begin is_stmt 0
	addq	$40, %rsp
	.cfi_def_cfa_offset 8
	retq
.Ltmp732:
.Lfunc_end106:
	.size	_ZN4core3str21_$LT$impl$u20$str$GT$5parse17h0b8e1d3ede83507cE, .Lfunc_end106-_ZN4core3str21_$LT$impl$u20$str$GT$5parse17h0b8e1d3ede83507cE
	.cfi_endproc

	.section	".text._ZN4core3str21_$LT$impl$u20$str$GT$5parse17hbe1366675d39cb87E","ax",@progbits
	.p2align	4, 0x90
	.type	_ZN4core3str21_$LT$impl$u20$str$GT$5parse17hbe1366675d39cb87E,@function
_ZN4core3str21_$LT$impl$u20$str$GT$5parse17hbe1366675d39cb87E:
.Lfunc_begin107:
	.loc	33 2403 0 is_stmt 1
	.cfi_startproc
	subq	$24, %rsp
	.cfi_def_cfa_offset 32
	movq	%rdi, %rax
	movq	%rax, (%rsp)
	movq	%rsi, 8(%rsp)
	movq	%rdx, 16(%rsp)
.Ltmp733:
	.loc	33 2404 9 prologue_end
	callq	*_ZN4core3num60_$LT$impl$u20$core..str..traits..FromStr$u20$for$u20$u64$GT$8from_str17he5d2a08f7c1a17f1E@GOTPCREL(%rip)
	movq	(%rsp), %rax
	.loc	33 2405 6 epilogue_begin
	addq	$24, %rsp
	.cfi_def_cfa_offset 8
	retq
.Ltmp734:
.Lfunc_end107:
	.size	_ZN4core3str21_$LT$impl$u20$str$GT$5parse17hbe1366675d39cb87E, .Lfunc_end107-_ZN4core3str21_$LT$impl$u20$str$GT$5parse17hbe1366675d39cb87E
	.cfi_endproc

	.section	".text._ZN4core3str21_$LT$impl$u20$str$GT$5split17hc2c4e44b42456f9cE","ax",@progbits
	.p2align	4, 0x90
	.type	_ZN4core3str21_$LT$impl$u20$str$GT$5split17hc2c4e44b42456f9cE,@function
_ZN4core3str21_$LT$impl$u20$str$GT$5split17hc2c4e44b42456f9cE:
.Lfunc_begin108:
	.loc	33 1408 0
	.cfi_startproc
	subq	$184, %rsp
	.cfi_def_cfa_offset 192
	movl	%ecx, 12(%rsp)
	movq	%rdx, %rcx
	movq	%rcx, 16(%rsp)
	movq	%rsi, %rdx
	movl	12(%rsp), %esi
	movq	%rdi, 24(%rsp)
	movq	%rdi, 32(%rsp)
	movq	%rdx, 160(%rsp)
	movq	%rcx, 168(%rsp)
	movl	%esi, 180(%rsp)
.Ltmp735:
	.loc	33 1412 22 prologue_end
	leaq	112(%rsp), %rdi
	callq	_ZN52_$LT$char$u20$as$u20$core..str..pattern..Pattern$GT$13into_searcher17h5d11ccbeabe662faE
	movq	16(%rsp), %rdx
	.loc	33 1409 15
	movq	$0, 40(%rsp)
	movq	%rdx, 48(%rsp)
	leaq	40(%rsp), %rdi
	addq	$16, %rdi
	leaq	112(%rsp), %rsi
	movl	$48, %edx
	callq	memcpy@PLT
	movq	24(%rsp), %rdi
	movb	$1, 104(%rsp)
	movb	$0, 105(%rsp)
	.loc	33 1409 9 is_stmt 0
	leaq	40(%rsp), %rsi
	movl	$72, %edx
	callq	memcpy@PLT
	movq	32(%rsp), %rax
	.loc	33 1416 6 epilogue_begin is_stmt 1
	addq	$184, %rsp
	.cfi_def_cfa_offset 8
	retq
.Ltmp736:
.Lfunc_end108:
	.size	_ZN4core3str21_$LT$impl$u20$str$GT$5split17hc2c4e44b42456f9cE, .Lfunc_end108-_ZN4core3str21_$LT$impl$u20$str$GT$5split17hc2c4e44b42456f9cE
	.cfi_endproc

	.section	".text._ZN4core3str21_$LT$impl$u20$str$GT$5split17hdd53fdb4a5a3dbf6E","ax",@progbits
	.p2align	4, 0x90
	.type	_ZN4core3str21_$LT$impl$u20$str$GT$5split17hdd53fdb4a5a3dbf6E,@function
_ZN4core3str21_$LT$impl$u20$str$GT$5split17hdd53fdb4a5a3dbf6E:
.Lfunc_begin109:
	.loc	33 1408 0
	.cfi_startproc
	subq	$184, %rsp
	.cfi_def_cfa_offset 192
	movq	%rcx, %rax
	movq	%rdx, %rcx
	movq	%rcx, (%rsp)
	movq	%rsi, %rdx
	movq	%rdi, 8(%rsp)
	movq	%rdi, 16(%rsp)
	movq	%rax, 32(%rsp)
	movq	32(%rsp), %rax
	movq	%rax, 24(%rsp)
	movq	%rdx, 160(%rsp)
	movq	%rcx, 168(%rsp)
.Ltmp737:
	.loc	33 1412 22 prologue_end
	movq	24(%rsp), %rax
	movq	%rax, 176(%rsp)
	movq	176(%rsp), %rsi
	leaq	112(%rsp), %rdi
	callq	_ZN73_$LT$$u5b$char$u3b$$u20$N$u5d$$u20$as$u20$core..str..pattern..Pattern$GT$13into_searcher17h023e6306bb0d8c02E
	movq	(%rsp), %rdx
	.loc	33 1409 15
	movq	$0, 88(%rsp)
	movq	%rdx, 96(%rsp)
	leaq	40(%rsp), %rdi
	leaq	112(%rsp), %rsi
	movl	$48, %edx
	callq	memcpy@PLT
	movq	8(%rsp), %rdi
	movb	$1, 104(%rsp)
	movb	$0, 105(%rsp)
	.loc	33 1409 9 is_stmt 0
	leaq	40(%rsp), %rsi
	movl	$72, %edx
	callq	memcpy@PLT
	movq	16(%rsp), %rax
	.loc	33 1416 6 epilogue_begin is_stmt 1
	addq	$184, %rsp
	.cfi_def_cfa_offset 8
	retq
.Ltmp738:
.Lfunc_end109:
	.size	_ZN4core3str21_$LT$impl$u20$str$GT$5split17hdd53fdb4a5a3dbf6E, .Lfunc_end109-_ZN4core3str21_$LT$impl$u20$str$GT$5split17hdd53fdb4a5a3dbf6E
	.cfi_endproc

	.section	".text._ZN4core3str4iter22SplitInternal$LT$P$GT$4next17h12c89255209beb86E","ax",@progbits
	.p2align	4, 0x90
	.type	_ZN4core3str4iter22SplitInternal$LT$P$GT$4next17h12c89255209beb86E,@function
_ZN4core3str4iter22SplitInternal$LT$P$GT$4next17h12c89255209beb86E:
.Lfunc_begin110:
	.loc	1 660 0
	.cfi_startproc
	subq	$200, %rsp
	.cfi_def_cfa_offset 208
	movq	%rdi, 48(%rsp)
	movq	%rdi, 96(%rsp)
.Ltmp739:
	.loc	1 661 12 prologue_end
	testb	$1, 65(%rdi)
	jne	.LBB110_2
	.loc	1 0 12 is_stmt 0
	movq	48(%rsp), %rdi
	.loc	1 665 24 is_stmt 1
	addq	$16, %rdi
	callq	_ZN81_$LT$core..str..pattern..CharSearcher$u20$as$u20$core..str..pattern..Searcher$GT$8haystack17hbee51a43bae7b4ccE
	movq	48(%rsp), %rsi
	movq	%rax, 32(%rsp)
	movq	%rdx, 40(%rsp)
	movq	%rax, 104(%rsp)
	movq	%rdx, 112(%rsp)
.Ltmp740:
	.loc	1 666 15
	addq	$16, %rsi
	leaq	72(%rsp), %rdi
	callq	_ZN81_$LT$core..str..pattern..CharSearcher$u20$as$u20$core..str..pattern..Searcher$GT$10next_match17hcb3077b7bf22bdf8E
	.loc	1 666 9 is_stmt 0
	cmpq	$0, 72(%rsp)
	je	.LBB110_3
	jmp	.LBB110_4
.Ltmp741:
.LBB110_2:
	.loc	1 662 20 is_stmt 1
	movq	.L__unnamed_8(%rip), %rcx
	movq	.L__unnamed_8+8(%rip), %rax
	movq	%rcx, 56(%rsp)
	movq	%rax, 64(%rsp)
	.loc	1 675 6
	jmp	.LBB110_7
.LBB110_3:
	.loc	1 0 6 is_stmt 0
	movq	48(%rsp), %rdi
.Ltmp742:
	.loc	1 673 21 is_stmt 1
	callq	_ZN4core3str4iter22SplitInternal$LT$P$GT$7get_end17h81c4b6bdb19c6fd3E
	movq	%rax, 56(%rsp)
	movq	%rdx, 64(%rsp)
	jmp	.LBB110_5
.LBB110_4:
	.loc	1 0 21 is_stmt 0
	movq	40(%rsp), %rax
	movq	32(%rsp), %rcx
	movq	48(%rsp), %rdx
	.loc	1 668 19 is_stmt 1
	movq	80(%rsp), %rsi
	movq	%rsi, 8(%rsp)
	movq	%rsi, 120(%rsp)
	.loc	1 668 22 is_stmt 0
	movq	88(%rsp), %rsi
	movq	%rsi, 16(%rsp)
	movq	%rsi, 128(%rsp)
.Ltmp743:
	.loc	1 669 50 is_stmt 1
	movq	(%rdx), %rdx
	movq	%rdx, 24(%rsp)
	movq	%rdx, 136(%rsp)
.Ltmp744:
	.loc	49 190 21
	movq	%rcx, 144(%rsp)
	movq	%rax, 152(%rsp)
.Ltmp745:
	.loc	3 76 35
	jmp	.LBB110_6
.Ltmp746:
.LBB110_5:
	.loc	1 675 6
	jmp	.LBB110_7
.LBB110_6:
	.loc	1 0 6 is_stmt 0
	movq	48(%rsp), %rdx
	movq	16(%rsp), %rsi
	movq	24(%rsp), %rdi
	movq	32(%rsp), %rcx
	movq	8(%rsp), %rax
.Ltmp747:
	.loc	49 211 27 is_stmt 1
	subq	%rdi, %rax
	movq	%rax, 160(%rsp)
.Ltmp748:
	.loc	7 1681 9
	movq	%rcx, 168(%rsp)
.Ltmp749:
	.loc	7 921 18
	addq	%rdi, %rcx
	movq	%rcx, 176(%rsp)
.Ltmp750:
	.loc	49 212 13
	movq	%rcx, 184(%rsp)
	movq	%rax, 192(%rsp)
.Ltmp751:
	.loc	1 670 17
	movq	%rsi, (%rdx)
	.loc	1 671 17
	movq	%rcx, 56(%rsp)
	movq	%rax, 64(%rsp)
.Ltmp752:
	.loc	1 672 13
	jmp	.LBB110_5
.Ltmp753:
.LBB110_7:
	.loc	1 675 6
	movq	56(%rsp), %rax
	movq	64(%rsp), %rdx
	.loc	1 675 6 epilogue_begin is_stmt 0
	addq	$200, %rsp
	.cfi_def_cfa_offset 8
	retq
.Ltmp754:
.Lfunc_end110:
	.size	_ZN4core3str4iter22SplitInternal$LT$P$GT$4next17h12c89255209beb86E, .Lfunc_end110-_ZN4core3str4iter22SplitInternal$LT$P$GT$4next17h12c89255209beb86E
	.cfi_endproc

	.section	".text._ZN4core3str4iter22SplitInternal$LT$P$GT$4next17h5eccf2a53d04534bE","ax",@progbits
	.p2align	4, 0x90
	.type	_ZN4core3str4iter22SplitInternal$LT$P$GT$4next17h5eccf2a53d04534bE,@function
_ZN4core3str4iter22SplitInternal$LT$P$GT$4next17h5eccf2a53d04534bE:
.Lfunc_begin111:
	.loc	1 660 0 is_stmt 1
	.cfi_startproc
	subq	$200, %rsp
	.cfi_def_cfa_offset 208
	movq	%rdi, 48(%rsp)
	movq	%rdi, 96(%rsp)
.Ltmp755:
	.loc	1 661 12 prologue_end
	testb	$1, 65(%rdi)
	jne	.LBB111_2
	.loc	1 0 12 is_stmt 0
	movq	48(%rsp), %rdi
	.loc	1 665 24 is_stmt 1
	callq	_ZN95_$LT$core..str..pattern..CharArraySearcher$LT$_$GT$$u20$as$u20$core..str..pattern..Searcher$GT$8haystack17h36da92dc55156608E
	movq	48(%rsp), %rsi
	movq	%rax, 32(%rsp)
	movq	%rdx, 40(%rsp)
	movq	%rax, 104(%rsp)
	movq	%rdx, 112(%rsp)
.Ltmp756:
	.loc	1 666 15
	leaq	72(%rsp), %rdi
	callq	_ZN95_$LT$core..str..pattern..CharArraySearcher$LT$_$GT$$u20$as$u20$core..str..pattern..Searcher$GT$10next_match17h21d92466a6ba2a0cE
	.loc	1 666 9 is_stmt 0
	cmpq	$0, 72(%rsp)
	je	.LBB111_3
	jmp	.LBB111_4
.Ltmp757:
.LBB111_2:
	.loc	1 662 20 is_stmt 1
	movq	.L__unnamed_8(%rip), %rcx
	movq	.L__unnamed_8+8(%rip), %rax
	movq	%rcx, 56(%rsp)
	movq	%rax, 64(%rsp)
	.loc	1 675 6
	jmp	.LBB111_7
.LBB111_3:
	.loc	1 0 6 is_stmt 0
	movq	48(%rsp), %rdi
.Ltmp758:
	.loc	1 673 21 is_stmt 1
	callq	_ZN4core3str4iter22SplitInternal$LT$P$GT$7get_end17hd46ddaf173308375E
	movq	%rax, 56(%rsp)
	movq	%rdx, 64(%rsp)
	jmp	.LBB111_5
.LBB111_4:
	.loc	1 0 21 is_stmt 0
	movq	40(%rsp), %rax
	movq	32(%rsp), %rcx
	movq	48(%rsp), %rdx
	.loc	1 668 19 is_stmt 1
	movq	80(%rsp), %rsi
	movq	%rsi, 8(%rsp)
	movq	%rsi, 120(%rsp)
	.loc	1 668 22 is_stmt 0
	movq	88(%rsp), %rsi
	movq	%rsi, 16(%rsp)
	movq	%rsi, 128(%rsp)
.Ltmp759:
	.loc	1 669 50 is_stmt 1
	movq	48(%rdx), %rdx
	movq	%rdx, 24(%rsp)
	movq	%rdx, 136(%rsp)
.Ltmp760:
	.loc	49 190 21
	movq	%rcx, 144(%rsp)
	movq	%rax, 152(%rsp)
.Ltmp761:
	.loc	3 76 35
	jmp	.LBB111_6
.Ltmp762:
.LBB111_5:
	.loc	1 675 6
	jmp	.LBB111_7
.LBB111_6:
	.loc	1 0 6 is_stmt 0
	movq	48(%rsp), %rdx
	movq	16(%rsp), %rsi
	movq	24(%rsp), %rdi
	movq	32(%rsp), %rcx
	movq	8(%rsp), %rax
.Ltmp763:
	.loc	49 211 27 is_stmt 1
	subq	%rdi, %rax
	movq	%rax, 160(%rsp)
.Ltmp764:
	.loc	7 1681 9
	movq	%rcx, 168(%rsp)
.Ltmp765:
	.loc	7 921 18
	addq	%rdi, %rcx
	movq	%rcx, 176(%rsp)
.Ltmp766:
	.loc	49 212 13
	movq	%rcx, 184(%rsp)
	movq	%rax, 192(%rsp)
.Ltmp767:
	.loc	1 670 17
	movq	%rsi, 48(%rdx)
	.loc	1 671 17
	movq	%rcx, 56(%rsp)
	movq	%rax, 64(%rsp)
.Ltmp768:
	.loc	1 672 13
	jmp	.LBB111_5
.Ltmp769:
.LBB111_7:
	.loc	1 675 6
	movq	56(%rsp), %rax
	movq	64(%rsp), %rdx
	.loc	1 675 6 epilogue_begin is_stmt 0
	addq	$200, %rsp
	.cfi_def_cfa_offset 8
	retq
.Ltmp770:
.Lfunc_end111:
	.size	_ZN4core3str4iter22SplitInternal$LT$P$GT$4next17h5eccf2a53d04534bE, .Lfunc_end111-_ZN4core3str4iter22SplitInternal$LT$P$GT$4next17h5eccf2a53d04534bE
	.cfi_endproc

	.section	".text._ZN4core3str4iter22SplitInternal$LT$P$GT$7get_end17h81c4b6bdb19c6fd3E","ax",@progbits
	.p2align	4, 0x90
	.type	_ZN4core3str4iter22SplitInternal$LT$P$GT$7get_end17h81c4b6bdb19c6fd3E,@function
_ZN4core3str4iter22SplitInternal$LT$P$GT$7get_end17h81c4b6bdb19c6fd3E:
.Lfunc_begin112:
	.loc	1 645 0 is_stmt 1
	.cfi_startproc
	subq	$152, %rsp
	.cfi_def_cfa_offset 160
	movq	%rdi, 32(%rsp)
	movq	%rdi, 56(%rsp)
.Ltmp771:
	.loc	1 646 13 prologue_end
	testb	$1, 65(%rdi)
	jne	.LBB112_2
	.loc	1 0 13 is_stmt 0
	movq	32(%rsp), %rax
	.loc	1 647 13 is_stmt 1
	movb	$1, 65(%rax)
	.loc	1 649 16
	testb	$1, 64(%rax)
	jne	.LBB112_4
	jmp	.LBB112_3
.LBB112_2:
	.loc	1 656 9
	movq	.L__unnamed_8(%rip), %rcx
	movq	.L__unnamed_8+8(%rip), %rax
	movq	%rcx, 40(%rsp)
	movq	%rax, 48(%rsp)
	.loc	1 657 6
	jmp	.LBB112_8
.LBB112_3:
	.loc	1 0 6 is_stmt 0
	movq	32(%rsp), %rcx
	.loc	1 649 45 is_stmt 1
	movq	8(%rcx), %rax
	subq	(%rcx), %rax
	cmpq	$0, %rax
	ja	.LBB112_6
	jmp	.LBB112_5
.LBB112_4:
	.loc	1 0 45 is_stmt 0
	movq	32(%rsp), %rdi
	.loc	1 651 39 is_stmt 1
	addq	$16, %rdi
	callq	_ZN81_$LT$core..str..pattern..CharSearcher$u20$as$u20$core..str..pattern..Searcher$GT$8haystack17hbee51a43bae7b4ccE
	movq	32(%rsp), %rcx
	movq	%rax, 8(%rsp)
	movq	%rax, 64(%rsp)
	movq	%rdx, 72(%rsp)
	.loc	1 651 77 is_stmt 0
	movq	(%rcx), %rsi
	movq	%rsi, 16(%rsp)
	movq	%rsi, 80(%rsp)
	.loc	1 651 89
	movq	8(%rcx), %rcx
	movq	%rcx, 24(%rsp)
	movq	%rcx, 88(%rsp)
.Ltmp772:
	.loc	49 190 21 is_stmt 1
	movq	%rax, 96(%rsp)
	movq	%rdx, 104(%rsp)
.Ltmp773:
	.loc	3 76 35
	jmp	.LBB112_7
.Ltmp774:
.LBB112_5:
	.loc	1 646 9
	jmp	.LBB112_2
.LBB112_6:
	.loc	1 649 71
	jmp	.LBB112_4
.LBB112_7:
	.loc	1 0 71 is_stmt 0
	movq	16(%rsp), %rdx
	movq	8(%rsp), %rcx
	movq	24(%rsp), %rax
.Ltmp775:
	.loc	49 211 27 is_stmt 1
	subq	%rdx, %rax
	movq	%rax, 112(%rsp)
.Ltmp776:
	.loc	7 1681 9
	movq	%rcx, 120(%rsp)
.Ltmp777:
	.loc	7 921 18
	addq	%rdx, %rcx
	movq	%rcx, 128(%rsp)
.Ltmp778:
	.loc	49 212 13
	movq	%rcx, 136(%rsp)
	movq	%rax, 144(%rsp)
.Ltmp779:
	.loc	1 652 24
	movq	%rcx, 40(%rsp)
	movq	%rax, 48(%rsp)
.Ltmp780:
.LBB112_8:
	.loc	1 657 6
	movq	40(%rsp), %rax
	movq	48(%rsp), %rdx
	.loc	1 657 6 epilogue_begin is_stmt 0
	addq	$152, %rsp
	.cfi_def_cfa_offset 8
	retq
.Ltmp781:
.Lfunc_end112:
	.size	_ZN4core3str4iter22SplitInternal$LT$P$GT$7get_end17h81c4b6bdb19c6fd3E, .Lfunc_end112-_ZN4core3str4iter22SplitInternal$LT$P$GT$7get_end17h81c4b6bdb19c6fd3E
	.cfi_endproc

	.section	".text._ZN4core3str4iter22SplitInternal$LT$P$GT$7get_end17hd46ddaf173308375E","ax",@progbits
	.p2align	4, 0x90
	.type	_ZN4core3str4iter22SplitInternal$LT$P$GT$7get_end17hd46ddaf173308375E,@function
_ZN4core3str4iter22SplitInternal$LT$P$GT$7get_end17hd46ddaf173308375E:
.Lfunc_begin113:
	.loc	1 645 0 is_stmt 1
	.cfi_startproc
	subq	$152, %rsp
	.cfi_def_cfa_offset 160
	movq	%rdi, 32(%rsp)
	movq	%rdi, 56(%rsp)
.Ltmp782:
	.loc	1 646 13 prologue_end
	testb	$1, 65(%rdi)
	jne	.LBB113_2
	.loc	1 0 13 is_stmt 0
	movq	32(%rsp), %rax
	.loc	1 647 13 is_stmt 1
	movb	$1, 65(%rax)
	.loc	1 649 16
	testb	$1, 64(%rax)
	jne	.LBB113_4
	jmp	.LBB113_3
.LBB113_2:
	.loc	1 656 9
	movq	.L__unnamed_8(%rip), %rcx
	movq	.L__unnamed_8+8(%rip), %rax
	movq	%rcx, 40(%rsp)
	movq	%rax, 48(%rsp)
	.loc	1 657 6
	jmp	.LBB113_8
.LBB113_3:
	.loc	1 0 6 is_stmt 0
	movq	32(%rsp), %rcx
	.loc	1 649 45 is_stmt 1
	movq	56(%rcx), %rax
	subq	48(%rcx), %rax
	cmpq	$0, %rax
	ja	.LBB113_6
	jmp	.LBB113_5
.LBB113_4:
	.loc	1 0 45 is_stmt 0
	movq	32(%rsp), %rdi
	.loc	1 651 39 is_stmt 1
	callq	_ZN95_$LT$core..str..pattern..CharArraySearcher$LT$_$GT$$u20$as$u20$core..str..pattern..Searcher$GT$8haystack17h36da92dc55156608E
	movq	32(%rsp), %rcx
	movq	%rax, 8(%rsp)
	movq	%rax, 64(%rsp)
	movq	%rdx, 72(%rsp)
	.loc	1 651 77 is_stmt 0
	movq	48(%rcx), %rsi
	movq	%rsi, 16(%rsp)
	movq	%rsi, 80(%rsp)
	.loc	1 651 89
	movq	56(%rcx), %rcx
	movq	%rcx, 24(%rsp)
	movq	%rcx, 88(%rsp)
.Ltmp783:
	.loc	49 190 21 is_stmt 1
	movq	%rax, 96(%rsp)
	movq	%rdx, 104(%rsp)
.Ltmp784:
	.loc	3 76 35
	jmp	.LBB113_7
.Ltmp785:
.LBB113_5:
	.loc	1 646 9
	jmp	.LBB113_2
.LBB113_6:
	.loc	1 649 71
	jmp	.LBB113_4
.LBB113_7:
	.loc	1 0 71 is_stmt 0
	movq	16(%rsp), %rdx
	movq	8(%rsp), %rcx
	movq	24(%rsp), %rax
.Ltmp786:
	.loc	49 211 27 is_stmt 1
	subq	%rdx, %rax
	movq	%rax, 112(%rsp)
.Ltmp787:
	.loc	7 1681 9
	movq	%rcx, 120(%rsp)
.Ltmp788:
	.loc	7 921 18
	addq	%rdx, %rcx
	movq	%rcx, 128(%rsp)
.Ltmp789:
	.loc	49 212 13
	movq	%rcx, 136(%rsp)
	movq	%rax, 144(%rsp)
.Ltmp790:
	.loc	1 652 24
	movq	%rcx, 40(%rsp)
	movq	%rax, 48(%rsp)
.Ltmp791:
.LBB113_8:
	.loc	1 657 6
	movq	40(%rsp), %rax
	movq	48(%rsp), %rdx
	.loc	1 657 6 epilogue_begin is_stmt 0
	addq	$152, %rsp
	.cfi_def_cfa_offset 8
	retq
.Ltmp792:
.Lfunc_end113:
	.size	_ZN4core3str4iter22SplitInternal$LT$P$GT$7get_end17hd46ddaf173308375E, .Lfunc_end113-_ZN4core3str4iter22SplitInternal$LT$P$GT$7get_end17hd46ddaf173308375E
	.cfi_endproc

	.section	".text._ZN4core3str6traits54_$LT$impl$u20$core..cmp..PartialEq$u20$for$u20$str$GT$2eq17h73508cdfc6b0aa89E","ax",@progbits
	.p2align	4, 0x90
	.type	_ZN4core3str6traits54_$LT$impl$u20$core..cmp..PartialEq$u20$for$u20$str$GT$2eq17h73508cdfc6b0aa89E,@function
_ZN4core3str6traits54_$LT$impl$u20$core..cmp..PartialEq$u20$for$u20$str$GT$2eq17h73508cdfc6b0aa89E:
.Lfunc_begin114:
	.loc	49 28 0 is_stmt 1
	.cfi_startproc
	subq	$88, %rsp
	.cfi_def_cfa_offset 96
	movq	%rdi, 40(%rsp)
	movq	%rsi, 48(%rsp)
	movq	%rdx, 56(%rsp)
	movq	%rcx, 64(%rsp)
.Ltmp793:
	.loc	33 302 18 prologue_end
	movq	%rdi, 8(%rsp)
	movq	%rsi, 16(%rsp)
.Ltmp794:
	.loc	49 29 9
	leaq	8(%rsp), %rax
	movq	%rax, 72(%rsp)
.Ltmp795:
	.loc	33 302 18
	movq	%rdx, 24(%rsp)
	movq	%rcx, 32(%rsp)
.Ltmp796:
	.loc	49 29 28
	leaq	24(%rsp), %rax
	movq	%rax, 80(%rsp)
.Ltmp797:
	.file	51 "/rustc/90b35a6239c3d8bdabc530a6a0816f7ff89a0aaf/library/core/src/slice" "cmp.rs"
	.loc	51 15 9
	movq	8(%rsp), %rdi
	movq	16(%rsp), %rsi
	movq	24(%rsp), %rdx
	movq	32(%rsp), %rcx
	callq	*_ZN73_$LT$$u5b$A$u5d$$u20$as$u20$core..slice..cmp..SlicePartialEq$LT$B$GT$$GT$5equal17h4390ef1bd91831dbE@GOTPCREL(%rip)
.Ltmp798:
	.loc	49 30 6
	andb	$1, %al
	.loc	49 30 6 epilogue_begin is_stmt 0
	addq	$88, %rsp
	.cfi_def_cfa_offset 8
	retq
.Ltmp799:
.Lfunc_end114:
	.size	_ZN4core3str6traits54_$LT$impl$u20$core..cmp..PartialEq$u20$for$u20$str$GT$2eq17h73508cdfc6b0aa89E, .Lfunc_end114-_ZN4core3str6traits54_$LT$impl$u20$core..cmp..PartialEq$u20$for$u20$str$GT$2eq17h73508cdfc6b0aa89E
	.cfi_endproc

	.section	".text._ZN4core3str74_$LT$impl$u20$core..convert..AsRef$LT$$u5b$u8$u5d$$GT$$u20$for$u20$str$GT$6as_ref17h8d5fc7781cd3caedE","ax",@progbits
	.p2align	4, 0x90
	.type	_ZN4core3str74_$LT$impl$u20$core..convert..AsRef$LT$$u5b$u8$u5d$$GT$$u20$for$u20$str$GT$6as_ref17h8d5fc7781cd3caedE,@function
_ZN4core3str74_$LT$impl$u20$core..convert..AsRef$LT$$u5b$u8$u5d$$GT$$u20$for$u20$str$GT$6as_ref17h8d5fc7781cd3caedE:
.Lfunc_begin115:
	.loc	33 2763 0 is_stmt 1
	.cfi_startproc
	movq	%rsi, %rdx
	movq	%rdi, %rax
	movq	%rax, -16(%rsp)
	movq	%rdx, -8(%rsp)
.Ltmp800:
	.loc	33 2765 6 prologue_end
	retq
.Ltmp801:
.Lfunc_end115:
	.size	_ZN4core3str74_$LT$impl$u20$core..convert..AsRef$LT$$u5b$u8$u5d$$GT$$u20$for$u20$str$GT$6as_ref17h8d5fc7781cd3caedE, .Lfunc_end115-_ZN4core3str74_$LT$impl$u20$core..convert..AsRef$LT$$u5b$u8$u5d$$GT$$u20$for$u20$str$GT$6as_ref17h8d5fc7781cd3caedE
	.cfi_endproc

	.section	.text._ZN4core3str7pattern15ReverseSearcher16next_reject_back17hb65704c84e79e5b1E,"ax",@progbits
	.p2align	4, 0x90
	.type	_ZN4core3str7pattern15ReverseSearcher16next_reject_back17hb65704c84e79e5b1E,@function
_ZN4core3str7pattern15ReverseSearcher16next_reject_back17hb65704c84e79e5b1E:
.Lfunc_begin116:
	.loc	10 313 0
	.cfi_startproc
	subq	$88, %rsp
	.cfi_def_cfa_offset 96
	movq	%rsi, 16(%rsp)
	movq	%rdi, 24(%rsp)
	movq	%rdi, 32(%rsp)
	movq	%rsi, 64(%rsp)
.LBB116_1:
	movq	16(%rsp), %rsi
	leaq	40(%rsp), %rdi
.Ltmp802:
	.loc	10 315 19 prologue_end
	callq	_ZN104_$LT$core..str..pattern..MultiCharEqSearcher$LT$C$GT$$u20$as$u20$core..str..pattern..ReverseSearcher$GT$9next_back17h860b325d705b98e6E
	movq	40(%rsp), %rax
	movq	%rax, 8(%rsp)
	.loc	10 315 13 is_stmt 0
	testq	%rax, %rax
	je	.LBB116_5
	jmp	.LBB116_7
.LBB116_7:
	.loc	10 0 13
	movq	8(%rsp), %rax
	.loc	10 315 13
	subq	$1, %rax
	je	.LBB116_3
	jmp	.LBB116_8
.LBB116_8:
	jmp	.LBB116_4
	.cfi_def_cfa_offset 8
	.loc	10 313 5 is_stmt 1
	ud2
.LBB116_3:
	.cfi_def_cfa_offset 96
	.loc	10 0 5 is_stmt 0
	movq	24(%rsp), %rax
	.loc	10 316 36 is_stmt 1
	movq	48(%rsp), %rdx
	movq	%rdx, 72(%rsp)
	.loc	10 316 39 is_stmt 0
	movq	56(%rsp), %rcx
	movq	%rcx, 80(%rsp)
.Ltmp803:
	.loc	10 316 52
	movq	%rdx, 8(%rax)
	movq	%rcx, 16(%rax)
	movq	$1, (%rax)
.Ltmp804:
	.loc	25 0 0
	jmp	.LBB116_6
.LBB116_4:
	movq	24(%rsp), %rax
	.loc	10 317 44 is_stmt 1
	movq	$0, (%rax)
	.loc	10 317 37 is_stmt 0
	jmp	.LBB116_6
.LBB116_5:
	.loc	25 0 0
	jmp	.LBB116_1
.LBB116_6:
	movq	32(%rsp), %rax
	.loc	10 321 6 epilogue_begin is_stmt 1
	addq	$88, %rsp
	.cfi_def_cfa_offset 8
	retq
.Ltmp805:
.Lfunc_end116:
	.size	_ZN4core3str7pattern15ReverseSearcher16next_reject_back17hb65704c84e79e5b1E, .Lfunc_end116-_ZN4core3str7pattern15ReverseSearcher16next_reject_back17hb65704c84e79e5b1E
	.cfi_endproc

	.section	.text._ZN4core3str7pattern8Searcher10next_match17h2c1878aee6f41088E,"ax",@progbits
	.p2align	4, 0x90
	.type	_ZN4core3str7pattern8Searcher10next_match17h2c1878aee6f41088E,@function
_ZN4core3str7pattern8Searcher10next_match17h2c1878aee6f41088E:
.Lfunc_begin117:
	.loc	10 232 0
	.cfi_startproc
	subq	$88, %rsp
	.cfi_def_cfa_offset 96
	movq	%rsi, 16(%rsp)
	movq	%rdi, 24(%rsp)
	movq	%rdi, 32(%rsp)
	movq	%rsi, 64(%rsp)
.LBB117_1:
	movq	16(%rsp), %rsi
	leaq	40(%rsp), %rdi
.Ltmp806:
	.loc	10 234 19 prologue_end
	callq	_ZN97_$LT$core..str..pattern..MultiCharEqSearcher$LT$C$GT$$u20$as$u20$core..str..pattern..Searcher$GT$4next17hb3ea4516bbc6993aE
	movq	40(%rsp), %rax
	movq	%rax, 8(%rsp)
	.loc	10 234 13 is_stmt 0
	testq	%rax, %rax
	je	.LBB117_3
	jmp	.LBB117_7
.LBB117_7:
	.loc	10 0 13
	movq	8(%rsp), %rax
	.loc	10 234 13
	subq	$1, %rax
	je	.LBB117_5
	jmp	.LBB117_8
.LBB117_8:
	jmp	.LBB117_4
	.cfi_def_cfa_offset 8
	.loc	10 232 5 is_stmt 1
	ud2
.LBB117_3:
	.cfi_def_cfa_offset 96
	.loc	10 0 5 is_stmt 0
	movq	24(%rsp), %rax
	.loc	10 235 35 is_stmt 1
	movq	48(%rsp), %rdx
	movq	%rdx, 72(%rsp)
	.loc	10 235 38 is_stmt 0
	movq	56(%rsp), %rcx
	movq	%rcx, 80(%rsp)
.Ltmp807:
	.loc	10 235 51
	movq	%rdx, 8(%rax)
	movq	%rcx, 16(%rax)
	movq	$1, (%rax)
.Ltmp808:
	.loc	25 0 0
	jmp	.LBB117_6
.LBB117_4:
	movq	24(%rsp), %rax
	.loc	10 236 44 is_stmt 1
	movq	$0, (%rax)
	.loc	10 236 37 is_stmt 0
	jmp	.LBB117_6
.LBB117_5:
	.loc	25 0 0
	jmp	.LBB117_1
.LBB117_6:
	movq	32(%rsp), %rax
	.loc	10 240 6 epilogue_begin is_stmt 1
	addq	$88, %rsp
	.cfi_def_cfa_offset 8
	retq
.Ltmp809:
.Lfunc_end117:
	.size	_ZN4core3str7pattern8Searcher10next_match17h2c1878aee6f41088E, .Lfunc_end117-_ZN4core3str7pattern8Searcher10next_match17h2c1878aee6f41088E
	.cfi_endproc

	.section	.text._ZN4core3str7pattern8Searcher11next_reject17h8533bcb41c1a515dE,"ax",@progbits
	.p2align	4, 0x90
	.type	_ZN4core3str7pattern8Searcher11next_reject17h8533bcb41c1a515dE,@function
_ZN4core3str7pattern8Searcher11next_reject17h8533bcb41c1a515dE:
.Lfunc_begin118:
	.loc	10 248 0
	.cfi_startproc
	subq	$88, %rsp
	.cfi_def_cfa_offset 96
	movq	%rsi, 16(%rsp)
	movq	%rdi, 24(%rsp)
	movq	%rdi, 32(%rsp)
	movq	%rsi, 64(%rsp)
.LBB118_1:
	movq	16(%rsp), %rsi
	leaq	40(%rsp), %rdi
.Ltmp810:
	.loc	10 250 19 prologue_end
	callq	_ZN97_$LT$core..str..pattern..MultiCharEqSearcher$LT$C$GT$$u20$as$u20$core..str..pattern..Searcher$GT$4next17h68695b405956723cE
	movq	40(%rsp), %rax
	movq	%rax, 8(%rsp)
	.loc	10 250 13 is_stmt 0
	testq	%rax, %rax
	je	.LBB118_5
	jmp	.LBB118_7
.LBB118_7:
	.loc	10 0 13
	movq	8(%rsp), %rax
	.loc	10 250 13
	subq	$1, %rax
	je	.LBB118_3
	jmp	.LBB118_8
.LBB118_8:
	jmp	.LBB118_4
	.cfi_def_cfa_offset 8
	.loc	10 248 5 is_stmt 1
	ud2
.LBB118_3:
	.cfi_def_cfa_offset 96
	.loc	10 0 5 is_stmt 0
	movq	24(%rsp), %rax
	.loc	10 251 36 is_stmt 1
	movq	48(%rsp), %rdx
	movq	%rdx, 72(%rsp)
	.loc	10 251 39 is_stmt 0
	movq	56(%rsp), %rcx
	movq	%rcx, 80(%rsp)
.Ltmp811:
	.loc	10 251 52
	movq	%rdx, 8(%rax)
	movq	%rcx, 16(%rax)
	movq	$1, (%rax)
.Ltmp812:
	.loc	25 0 0
	jmp	.LBB118_6
.LBB118_4:
	movq	24(%rsp), %rax
	.loc	10 252 44 is_stmt 1
	movq	$0, (%rax)
	.loc	10 252 37 is_stmt 0
	jmp	.LBB118_6
.LBB118_5:
	.loc	25 0 0
	jmp	.LBB118_1
.LBB118_6:
	movq	32(%rsp), %rax
	.loc	10 256 6 epilogue_begin is_stmt 1
	addq	$88, %rsp
	.cfi_def_cfa_offset 8
	retq
.Ltmp813:
.Lfunc_end118:
	.size	_ZN4core3str7pattern8Searcher11next_reject17h8533bcb41c1a515dE, .Lfunc_end118-_ZN4core3str7pattern8Searcher11next_reject17h8533bcb41c1a515dE
	.cfi_endproc

	.section	.text._ZN4core4char7methods15encode_utf8_raw17h4c53560152c07886E,"ax",@progbits
	.p2align	4, 0x90
	.type	_ZN4core4char7methods15encode_utf8_raw17h4c53560152c07886E,@function
_ZN4core4char7methods15encode_utf8_raw17h4c53560152c07886E:
.Lfunc_begin119:
	.loc	9 1779 0
	.cfi_startproc
	subq	$168, %rsp
	.cfi_def_cfa_offset 176
	movl	%edi, 20(%rsp)
	movq	%rsi, 24(%rsp)
	movq	%rdx, 32(%rsp)
	movl	%edi, 52(%rsp)
	movq	%rsi, 56(%rsp)
	movq	%rdx, 64(%rsp)
.Ltmp814:
	.loc	9 1747 9 prologue_end
	cmpl	$128, %edi
	jb	.LBB119_2
	.loc	9 0 9 is_stmt 0
	movl	20(%rsp), %eax
	.loc	9 1748 9 is_stmt 1
	cmpl	$2048, %eax
	jb	.LBB119_4
	jmp	.LBB119_3
.LBB119_2:
	.loc	9 0 9 is_stmt 0
	movq	32(%rsp), %rax
	.loc	9 1747 24 is_stmt 1
	movq	$1, 40(%rsp)
.Ltmp815:
	.loc	9 1791 13
	cmpq	$1, %rax
	jae	.LBB119_12
	jmp	.LBB119_7
.Ltmp816:
.LBB119_3:
	.loc	9 0 13 is_stmt 0
	movl	20(%rsp), %eax
.Ltmp817:
	.loc	9 1749 9 is_stmt 1
	cmpl	$65536, %eax
	jb	.LBB119_6
	jmp	.LBB119_5
.LBB119_4:
	.loc	9 0 9 is_stmt 0
	movq	32(%rsp), %rax
	.loc	9 1748 24 is_stmt 1
	movq	$2, 40(%rsp)
.Ltmp818:
	.loc	9 1794 13
	cmpq	$2, %rax
	jae	.LBB119_11
	jmp	.LBB119_7
.Ltmp819:
.LBB119_5:
	.loc	9 0 13 is_stmt 0
	movq	32(%rsp), %rax
.Ltmp820:
	.loc	9 1750 14 is_stmt 1
	movq	$4, 40(%rsp)
.Ltmp821:
	.loc	9 1803 13
	cmpq	$4, %rax
	jae	.LBB119_8
	jmp	.LBB119_7
.Ltmp822:
.LBB119_6:
	.loc	9 0 13 is_stmt 0
	movq	32(%rsp), %rax
.Ltmp823:
	.loc	9 1749 26 is_stmt 1
	movq	$3, 40(%rsp)
.Ltmp824:
	.loc	9 1798 13
	cmpq	$3, %rax
	jae	.LBB119_10
.LBB119_7:
	.loc	9 0 13 is_stmt 0
	movq	32(%rsp), %rdx
	movl	20(%rsp), %edi
	.loc	9 1810 39 is_stmt 1
	movq	40(%rsp), %rsi
	.loc	9 1810 14 is_stmt 0
	callq	*_ZN4core4char7methods15encode_utf8_raw11panic_at_rt17he4649c946432569cE@GOTPCREL(%rip)
	jmp	.LBB119_9
.LBB119_8:
	.loc	9 0 14
	movq	24(%rsp), %rax
	movl	20(%rsp), %ecx
	.loc	9 1803 14 is_stmt 1
	movq	%rax, 72(%rsp)
	.loc	9 1803 17 is_stmt 0
	movq	%rax, %rdx
	addq	$1, %rdx
	movq	%rdx, 80(%rsp)
	.loc	9 1803 20
	movq	%rax, %rdx
	addq	$2, %rdx
	movq	%rdx, 88(%rsp)
	.loc	9 1803 23
	movq	%rax, %rdx
	addq	$3, %rdx
	movq	%rdx, 96(%rsp)
.Ltmp825:
	.loc	9 1804 19 is_stmt 1
	movl	%ecx, %edx
	shrl	$18, %edx
	.loc	9 1804 18 is_stmt 0
	andl	$7, %edx
	.loc	9 1804 13
	orb	$-16, %dl
	movb	%dl, (%rax)
	.loc	9 1805 19 is_stmt 1
	movl	%ecx, %edx
	shrl	$12, %edx
	.loc	9 1805 18 is_stmt 0
	andl	$63, %edx
	.loc	9 1805 13
	orb	$-128, %dl
	movb	%dl, 1(%rax)
	.loc	9 1806 19 is_stmt 1
	movl	%ecx, %edx
	shrl	$6, %edx
	.loc	9 1806 18 is_stmt 0
	andl	$63, %edx
	.loc	9 1806 13
	orb	$-128, %dl
	movb	%dl, 2(%rax)
	.loc	9 1807 18 is_stmt 1
	andl	$63, %ecx
	.loc	9 1807 13 is_stmt 0
	orb	$-128, %cl
	movb	%cl, 3(%rax)
.Ltmp826:
.LBB119_9:
	.loc	9 0 13
	movq	24(%rsp), %rax
.Ltmp827:
	.loc	32 780 9 is_stmt 1
	movq	%rax, 152(%rsp)
.Ltmp828:
	.loc	9 1813 58
	movq	40(%rsp), %rax
	movq	%rax, 8(%rsp)
	movq	%rax, 160(%rsp)
.Ltmp829:
	.loc	3 76 35
	jmp	.LBB119_13
.Ltmp830:
.LBB119_10:
	.loc	3 0 35 is_stmt 0
	movq	24(%rsp), %rax
	movl	20(%rsp), %ecx
	.loc	9 1798 14 is_stmt 1
	movq	%rax, 104(%rsp)
	.loc	9 1798 17 is_stmt 0
	movq	%rax, %rdx
	addq	$1, %rdx
	movq	%rdx, 112(%rsp)
	.loc	9 1798 20
	movq	%rax, %rdx
	addq	$2, %rdx
	movq	%rdx, 120(%rsp)
.Ltmp831:
	.loc	9 1799 19 is_stmt 1
	movl	%ecx, %edx
	shrl	$12, %edx
	.loc	9 1799 18 is_stmt 0
	andl	$15, %edx
	.loc	9 1799 13
	orb	$-32, %dl
	movb	%dl, (%rax)
	.loc	9 1800 19 is_stmt 1
	movl	%ecx, %edx
	shrl	$6, %edx
	.loc	9 1800 18 is_stmt 0
	andl	$63, %edx
	.loc	9 1800 13
	orb	$-128, %dl
	movb	%dl, 1(%rax)
	.loc	9 1801 18 is_stmt 1
	andl	$63, %ecx
	.loc	9 1801 13 is_stmt 0
	orb	$-128, %cl
	movb	%cl, 2(%rax)
.Ltmp832:
	.loc	9 1802 9 is_stmt 1
	jmp	.LBB119_9
.LBB119_11:
	.loc	9 0 9 is_stmt 0
	movq	24(%rsp), %rax
	movl	20(%rsp), %ecx
	.loc	9 1794 14 is_stmt 1
	movq	%rax, 128(%rsp)
	.loc	9 1794 17 is_stmt 0
	movq	%rax, %rdx
	addq	$1, %rdx
	movq	%rdx, 136(%rsp)
.Ltmp833:
	.loc	9 1795 19 is_stmt 1
	movl	%ecx, %edx
	shrl	$6, %edx
	.loc	9 1795 18 is_stmt 0
	andl	$31, %edx
	.loc	9 1795 13
	orb	$-64, %dl
	movb	%dl, (%rax)
	.loc	9 1796 18 is_stmt 1
	andl	$63, %ecx
	.loc	9 1796 13 is_stmt 0
	orb	$-128, %cl
	movb	%cl, 1(%rax)
.Ltmp834:
	.loc	9 1797 9 is_stmt 1
	jmp	.LBB119_9
.LBB119_12:
	.loc	9 0 9 is_stmt 0
	movq	24(%rsp), %rax
	movl	20(%rsp), %ecx
	.loc	9 1791 14 is_stmt 1
	movq	%rax, 144(%rsp)
.Ltmp835:
	.loc	9 1792 13
	movb	%cl, (%rax)
.Ltmp836:
	.loc	9 1793 9
	jmp	.LBB119_9
.Ltmp837:
.LBB119_13:
	.loc	9 0 9 is_stmt 0
	movq	8(%rsp), %rdx
	movq	24(%rsp), %rax
	.loc	9 1814 2 epilogue_begin is_stmt 1
	addq	$168, %rsp
	.cfi_def_cfa_offset 8
	retq
.Ltmp838:
.Lfunc_end119:
	.size	_ZN4core4char7methods15encode_utf8_raw17h4c53560152c07886E, .Lfunc_end119-_ZN4core4char7methods15encode_utf8_raw17h4c53560152c07886E
	.cfi_endproc
	.file	52 "/rustc/90b35a6239c3d8bdabc530a6a0816f7ff89a0aaf/library/core/src/slice" "raw.rs"

	.section	.text._ZN4core4hint21unreachable_unchecked18precondition_check17h5dfa1f1e1ae9df1dE,"ax",@progbits
	.p2align	4, 0x90
	.type	_ZN4core4hint21unreachable_unchecked18precondition_check17h5dfa1f1e1ae9df1dE,@function
_ZN4core4hint21unreachable_unchecked18precondition_check17h5dfa1f1e1ae9df1dE:
.Lfunc_begin120:
	.loc	3 68 0
	.cfi_startproc
	pushq	%rax
	.cfi_def_cfa_offset 16
.Ltmp839:
	.loc	3 70 21 prologue_end
	leaq	.L__unnamed_17(%rip), %rdi
	movq	_ZN4core9panicking14panic_nounwind17hd0dad372654c389aE@GOTPCREL(%rip), %rax
	movl	$82, %esi
	callq	*%rax
.Ltmp840:
.Lfunc_end120:
	.size	_ZN4core4hint21unreachable_unchecked18precondition_check17h5dfa1f1e1ae9df1dE, .Lfunc_end120-_ZN4core4hint21unreachable_unchecked18precondition_check17h5dfa1f1e1ae9df1dE
	.cfi_endproc

	.section	.text._ZN4core4iter6traits8iterator8Iterator10advance_by17h717623ce3b447963E,"ax",@progbits
	.p2align	4, 0x90
	.type	_ZN4core4iter6traits8iterator8Iterator10advance_by17h717623ce3b447963E,@function
_ZN4core4iter6traits8iterator8Iterator10advance_by17h717623ce3b447963E:
.Lfunc_begin121:
	.file	53 "/rustc/90b35a6239c3d8bdabc530a6a0816f7ff89a0aaf/library/core/src/iter/traits" "iterator.rs"
	.loc	53 301 0
	.cfi_startproc
	subq	$200, %rsp
	.cfi_def_cfa_offset 208
	movq	%rdi, 24(%rsp)
	movq	%rsi, 32(%rsp)
	movq	%rdi, 104(%rsp)
	movq	%rsi, 112(%rsp)
.Ltmp841:
	.loc	53 302 18 prologue_end
	movq	$0, 120(%rsp)
	movq	%rsi, 128(%rsp)
	movq	$0, 48(%rsp)
	movq	%rsi, 56(%rsp)
.LBB121_1:
.Ltmp842:
	.loc	53 302 18 is_stmt 0
	leaq	48(%rsp), %rax
	movq	%rax, 136(%rsp)
.Ltmp843:
	.loc	42 752 12 is_stmt 1
	leaq	48(%rsp), %rax
	movq	%rax, 144(%rsp)
	.loc	42 752 25 is_stmt 0
	leaq	48(%rsp), %rax
	addq	$8, %rax
	movq	%rax, 152(%rsp)
.Ltmp844:
	.loc	45 1720 52 is_stmt 1
	movq	48(%rsp), %rax
	cmpq	56(%rsp), %rax
.Ltmp845:
	.loc	42 752 12
	jb	.LBB121_3
.Ltmp846:
	.loc	53 308 9
	movq	$0, 40(%rsp)
	.loc	53 309 6
	jmp	.LBB121_4
.LBB121_3:
.Ltmp847:
	.loc	42 753 23
	movq	48(%rsp), %rdi
	movq	%rdi, 8(%rsp)
	movq	%rdi, 160(%rsp)
.Ltmp848:
	.loc	42 755 35
	movl	$1, %esi
	callq	_ZN49_$LT$usize$u20$as$u20$core..iter..range..Step$GT$17forward_unchecked17h9403b3925071579fE
	movq	24(%rsp), %rdi
	movq	%rax, %rcx
	movq	8(%rsp), %rax
	.loc	42 755 13 is_stmt 0
	movq	%rcx, 48(%rsp)
	.loc	42 756 13 is_stmt 1
	movq	%rax, 72(%rsp)
	movq	$1, 64(%rsp)
.Ltmp849:
	.loc	53 302 13
	movq	72(%rsp), %rax
	movq	%rax, 16(%rsp)
	movq	%rax, 168(%rsp)
.Ltmp850:
	.loc	53 303 16
	callq	_ZN90_$LT$core..str..iter..Split$LT$P$GT$$u20$as$u20$core..iter..traits..iterator..Iterator$GT$4next17hebe185e1cdd691c6E
	movq	%rax, 80(%rsp)
	movq	%rdx, 88(%rsp)
	leaq	80(%rsp), %rax
	movq	%rax, 176(%rsp)
.Ltmp851:
	.loc	2 607 18
	movq	80(%rsp), %rdx
	movl	$1, %eax
	xorl	%ecx, %ecx
	cmpq	$0, %rdx
	cmoveq	%rcx, %rax
	.loc	40 475 9
	cmpq	$1, %rax
	je	.LBB121_5
	jmp	.LBB121_6
.Ltmp852:
.LBB121_4:
	.loc	53 309 6
	movq	40(%rsp), %rax
	.loc	53 309 6 epilogue_begin is_stmt 0
	addq	$200, %rsp
	.cfi_def_cfa_offset 8
	retq
.LBB121_5:
	.cfi_def_cfa_offset 208
.Ltmp853:
	.loc	53 302 9 is_stmt 1
	jmp	.LBB121_1
.LBB121_6:
	.loc	53 0 9 is_stmt 0
	movq	16(%rsp), %rcx
	movq	32(%rsp), %rax
.Ltmp854:
	.loc	53 305 60 is_stmt 1
	subq	%rcx, %rax
	movq	%rax, 184(%rsp)
.Ltmp855:
	.loc	38 354 18
	movq	%rax, 96(%rsp)
.Ltmp856:
	.loc	38 368 15
	movl	$1, %eax
	xorl	%ecx, %ecx
	cmpq	$0, 96(%rsp)
	cmoveq	%rcx, %rax
	.loc	38 368 9 is_stmt 0
	cmpq	$0, %rax
	jne	.LBB121_8
	.loc	3 77 17 is_stmt 1
	callq	_ZN4core3num7nonzero16NonZero$LT$T$GT$13new_unchecked18precondition_check17hfa3dbaaed3567240E
	jmp	.LBB121_9
.LBB121_8:
	.loc	38 369 18
	movq	96(%rsp), %rax
	movq	%rax, 192(%rsp)
.Ltmp857:
	.loc	53 305 24
	movq	%rax, 40(%rsp)
.Ltmp858:
	.loc	53 309 6
	jmp	.LBB121_4
.LBB121_9:
	.loc	25 0 0 is_stmt 0
	ud2
.Ltmp859:
.Lfunc_end121:
	.size	_ZN4core4iter6traits8iterator8Iterator10advance_by17h717623ce3b447963E, .Lfunc_end121-_ZN4core4iter6traits8iterator8Iterator10advance_by17h717623ce3b447963E
	.cfi_endproc

	.section	.text._ZN4core4iter6traits8iterator8Iterator3nth17h42cdf5b6e43ada86E,"ax",@progbits
	.p2align	4, 0x90
	.type	_ZN4core4iter6traits8iterator8Iterator3nth17h42cdf5b6e43ada86E,@function
_ZN4core4iter6traits8iterator8Iterator3nth17h42cdf5b6e43ada86E:
.Lfunc_begin122:
	.loc	53 353 0 is_stmt 1
	.cfi_startproc
	subq	$72, %rsp
	.cfi_def_cfa_offset 80
	movq	%rdi, 8(%rsp)
	movq	%rdi, 48(%rsp)
	movq	%rsi, 56(%rsp)
.Ltmp860:
	.loc	53 354 9 prologue_end
	callq	_ZN4core4iter6traits8iterator8Iterator10advance_by17h717623ce3b447963E
	movq	%rax, 40(%rsp)
.Ltmp861:
	.loc	39 658 15
	movl	$1, %eax
	xorl	%ecx, %ecx
	cmpq	$0, 40(%rsp)
	cmoveq	%rcx, %rax
	.loc	39 658 9 is_stmt 0
	cmpq	$0, %rax
	jne	.LBB122_2
.Ltmp862:
	.loc	39 659 22 is_stmt 1
	movb	$1, 39(%rsp)
.Ltmp863:
	.loc	39 659 28 is_stmt 0
	jmp	.LBB122_3
.LBB122_2:
	.loc	39 660 23 is_stmt 1
	movb	$0, 39(%rsp)
.Ltmp864:
.LBB122_3:
	.loc	2 2484 15
	movb	39(%rsp), %al
	andb	$1, %al
	movzbl	%al, %eax
	.loc	2 2484 9 is_stmt 0
	cmpq	$0, %rax
	jne	.LBB122_5
.Ltmp865:
	.loc	2 2498 21 is_stmt 1
	movq	$0, 16(%rsp)
.Ltmp866:
	.loc	53 356 6
	jmp	.LBB122_6
.LBB122_5:
	.loc	53 0 6 is_stmt 0
	movq	8(%rsp), %rdi
	.loc	53 355 9 is_stmt 1
	callq	_ZN90_$LT$core..str..iter..Split$LT$P$GT$$u20$as$u20$core..iter..traits..iterator..Iterator$GT$4next17hebe185e1cdd691c6E
	movq	%rax, 16(%rsp)
	movq	%rdx, 24(%rsp)
.LBB122_6:
	.loc	53 356 6
	movq	16(%rsp), %rax
	movq	24(%rsp), %rdx
	.loc	53 356 6 epilogue_begin is_stmt 0
	addq	$72, %rsp
	.cfi_def_cfa_offset 8
	retq
.Ltmp867:
.Lfunc_end122:
	.size	_ZN4core4iter6traits8iterator8Iterator3nth17h42cdf5b6e43ada86E, .Lfunc_end122-_ZN4core4iter6traits8iterator8Iterator3nth17h42cdf5b6e43ada86E
	.cfi_endproc

	.section	.text._ZN4core4iter6traits8iterator8Iterator8try_fold17hee73e3dc50c75a02E,"ax",@progbits
	.p2align	4, 0x90
	.type	_ZN4core4iter6traits8iterator8Iterator8try_fold17hee73e3dc50c75a02E,@function
_ZN4core4iter6traits8iterator8Iterator8try_fold17hee73e3dc50c75a02E:
.Lfunc_begin123:
	.loc	53 2398 0 is_stmt 1
	.cfi_startproc
	.cfi_personality 155, DW.ref.rust_eh_personality
	.cfi_lsda 27, .Lexception21
	subq	$200, %rsp
	.cfi_def_cfa_offset 208
	movq	%rdi, 72(%rsp)
	movq	%rdx, 80(%rsp)
	movq	%rdi, 144(%rsp)
	movq	%rsi, 152(%rsp)
.Ltmp879:
	.loc	53 2404 25 prologue_end
	movb	$1, 143(%rsp)
	movq	%rsi, 104(%rsp)
.LBB123_1:
.Ltmp868:
	.loc	53 0 25 is_stmt 0
	movq	72(%rsp), %rdi
.Ltmp880:
	.loc	53 2405 29 is_stmt 1
	callq	_ZN91_$LT$core..slice..iter..Iter$LT$T$GT$$u20$as$u20$core..iter..traits..iterator..Iterator$GT$4next17hd48a8e394ebcd5ceE
.Ltmp869:
	movq	%rax, 64(%rsp)
	jmp	.LBB123_4
.Ltmp881:
.LBB123_2:
	.loc	53 2409 5
	testb	$1, 143(%rsp)
	jne	.LBB123_16
	jmp	.LBB123_15
.LBB123_3:
.Ltmp878:
	.loc	53 0 5 is_stmt 0
	movq	%rax, %rcx
	movl	%edx, %eax
	movq	%rcx, 168(%rsp)
	movl	%eax, 176(%rsp)
	jmp	.LBB123_2
.LBB123_4:
	movq	64(%rsp), %rax
.Ltmp882:
	.loc	53 2405 29 is_stmt 1
	movq	%rax, 112(%rsp)
	movq	112(%rsp), %rdx
	movl	$1, %eax
	xorl	%ecx, %ecx
	cmpq	$0, %rdx
	cmoveq	%rcx, %rax
	.loc	53 2405 19 is_stmt 0
	cmpq	$1, %rax
	jne	.LBB123_6
	.loc	53 2405 24
	movq	112(%rsp), %rdx
	movq	%rdx, 184(%rsp)
	.loc	53 2406 23 is_stmt 1
	movb	$0, 143(%rsp)
	movq	104(%rsp), %rsi
.Ltmp872:
	leaq	80(%rsp), %rdi
	.loc	53 2406 21 is_stmt 0
	callq	_ZN4core4iter8adapters3map12map_try_fold28_$u7b$$u7b$closure$u7d$$u7d$17hca7e4d4b368e08bfE
.Ltmp873:
	movq	%rdx, 48(%rsp)
	movq	%rax, 56(%rsp)
	jmp	.LBB123_7
.Ltmp883:
.LBB123_6:
	.loc	53 2407 9 is_stmt 1
	jmp	.LBB123_13
.LBB123_7:
.Ltmp874:
	.loc	53 0 9 is_stmt 0
	movq	48(%rsp), %rsi
	movq	56(%rsp), %rdi
.Ltmp884:
	.loc	53 2406 21 is_stmt 1
	callq	_ZN75_$LT$core..option..Option$LT$T$GT$$u20$as$u20$core..ops..try_trait..Try$GT$6branch17h145b5a02d6274128E
.Ltmp875:
	movq	%rdx, 32(%rsp)
	movq	%rax, 40(%rsp)
	jmp	.LBB123_8
.LBB123_8:
	.loc	53 0 21 is_stmt 0
	movq	32(%rsp), %rax
	movq	40(%rsp), %rcx
	.loc	53 2406 21
	movq	%rcx, 120(%rsp)
	movq	%rax, 128(%rsp)
	cmpq	$0, 120(%rsp)
	jne	.LBB123_10
	movq	128(%rsp), %rax
	movq	%rax, 192(%rsp)
	.loc	53 2406 13
	movb	$1, 143(%rsp)
	movq	%rax, 104(%rsp)
.Ltmp885:
	.loc	53 2405 9 is_stmt 1
	jmp	.LBB123_1
.LBB123_10:
.Ltmp876:
.Ltmp886:
	.loc	53 2406 21
	callq	_ZN145_$LT$core..option..Option$LT$T$GT$$u20$as$u20$core..ops..try_trait..FromResidual$LT$core..option..Option$LT$core..convert..Infallible$GT$$GT$$GT$13from_residual17h929ca78d2d2e5ea5E
.Ltmp877:
	movq	%rdx, 16(%rsp)
	movq	%rax, 24(%rsp)
	jmp	.LBB123_11
.LBB123_11:
	.loc	53 0 21 is_stmt 0
	movq	16(%rsp), %rax
	movq	24(%rsp), %rcx
	.loc	53 2406 21
	movq	%rcx, 88(%rsp)
	movq	%rax, 96(%rsp)
.Ltmp887:
.LBB123_12:
	.loc	53 2409 6 is_stmt 1
	movq	88(%rsp), %rax
	movq	96(%rsp), %rdx
	.loc	53 2409 6 epilogue_begin is_stmt 0
	addq	$200, %rsp
	.cfi_def_cfa_offset 8
	retq
.LBB123_13:
	.cfi_def_cfa_offset 208
.Ltmp888:
	.loc	53 2408 15 is_stmt 1
	movb	$0, 143(%rsp)
	movq	104(%rsp), %rdi
.Ltmp870:
	callq	_ZN75_$LT$core..option..Option$LT$T$GT$$u20$as$u20$core..ops..try_trait..Try$GT$11from_output17hee0473ea3df222f0E
.Ltmp871:
	movq	%rdx, (%rsp)
	movq	%rax, 8(%rsp)
	jmp	.LBB123_14
.LBB123_14:
	.loc	53 0 15 is_stmt 0
	movq	(%rsp), %rax
	movq	8(%rsp), %rcx
	.loc	53 2408 15
	movq	%rcx, 88(%rsp)
	movq	%rax, 96(%rsp)
.Ltmp889:
	.loc	53 2409 5 is_stmt 1
	jmp	.LBB123_12
.LBB123_15:
	.loc	53 2398 5
	movq	168(%rsp), %rdi
	callq	_Unwind_Resume@PLT
.LBB123_16:
	.loc	53 2409 5
	jmp	.LBB123_15
.Ltmp890:
.Lfunc_end123:
	.size	_ZN4core4iter6traits8iterator8Iterator8try_fold17hee73e3dc50c75a02E, .Lfunc_end123-_ZN4core4iter6traits8iterator8Iterator8try_fold17hee73e3dc50c75a02E
	.cfi_endproc
	.section	.gcc_except_table._ZN4core4iter6traits8iterator8Iterator8try_fold17hee73e3dc50c75a02E,"a",@progbits
	.p2align	2, 0x0
GCC_except_table123:
.Lexception21:
	.byte	255
	.byte	255
	.byte	1
	.uleb128 .Lcst_end21-.Lcst_begin21
.Lcst_begin21:
	.uleb128 .Ltmp868-.Lfunc_begin123
	.uleb128 .Ltmp871-.Ltmp868
	.uleb128 .Ltmp878-.Lfunc_begin123
	.byte	0
	.uleb128 .Ltmp871-.Lfunc_begin123
	.uleb128 .Lfunc_end123-.Ltmp871
	.byte	0
	.byte	0
.Lcst_end21:
	.p2align	2, 0x0

	.section	".text._ZN4core4iter8adapters3map12map_try_fold28_$u7b$$u7b$closure$u7d$$u7d$17hca7e4d4b368e08bfE","ax",@progbits
	.p2align	4, 0x90
	.type	_ZN4core4iter8adapters3map12map_try_fold28_$u7b$$u7b$closure$u7d$$u7d$17hca7e4d4b368e08bfE,@function
_ZN4core4iter8adapters3map12map_try_fold28_$u7b$$u7b$closure$u7d$$u7d$17hca7e4d4b368e08bfE:
.Lfunc_begin124:
	.file	54 "/rustc/90b35a6239c3d8bdabc530a6a0816f7ff89a0aaf/library/core/src/iter/adapters" "map.rs"
	.loc	54 95 0
	.cfi_startproc
	.cfi_personality 155, DW.ref.rust_eh_personality
	.cfi_lsda 27, .Lexception22
	subq	$104, %rsp
	.cfi_def_cfa_offset 112
	movq	%rdx, 24(%rsp)
	movq	%rsi, %rax
	movq	24(%rsp), %rsi
	movq	%rax, 32(%rsp)
	movq	%rdi, 64(%rsp)
	movq	%rax, 72(%rsp)
	movq	%rsi, 80(%rsp)
.Ltmp896:
	.loc	54 95 21 prologue_end
	movq	%rdi, %rax
	addq	$8, %rax
	movq	%rax, 40(%rsp)
	.loc	54 95 23 is_stmt 0
	movb	$1, 63(%rsp)
	.loc	54 95 28
	movq	(%rdi), %rdi
.Ltmp891:
	callq	_ZN5alloc3str17join_generic_copy28_$u7b$$u7b$closure$u7d$$u7d$28_$u7b$$u7b$closure$u7d$$u7d$17h08e416fa50b9a19bE
.Ltmp892:
	movq	%rax, 48(%rsp)
	jmp	.LBB124_3
.LBB124_1:
	.loc	54 95 34
	testb	$1, 63(%rsp)
	jne	.LBB124_6
	jmp	.LBB124_5
.LBB124_2:
.Ltmp895:
	.loc	54 0 34
	movq	%rax, %rcx
	movl	%edx, %eax
	movq	%rcx, 88(%rsp)
	movl	%eax, 96(%rsp)
	jmp	.LBB124_1
.LBB124_3:
	movq	48(%rsp), %rdx
	movq	32(%rsp), %rsi
	movq	40(%rsp), %rdi
	.loc	54 95 21
	movb	$0, 63(%rsp)
.Ltmp893:
	callq	_ZN4core3ops8function5FnMut8call_mut17hc0f7f67c7e2316a4E
.Ltmp894:
	movq	%rdx, 8(%rsp)
	movq	%rax, 16(%rsp)
	jmp	.LBB124_4
.LBB124_4:
	.loc	54 0 21
	movq	8(%rsp), %rdx
	movq	16(%rsp), %rax
	.loc	54 95 35 epilogue_begin
	addq	$104, %rsp
	.cfi_def_cfa_offset 8
	retq
.LBB124_5:
	.cfi_def_cfa_offset 112
	.loc	54 95 5
	movq	88(%rsp), %rdi
	callq	_Unwind_Resume@PLT
.LBB124_6:
	.loc	54 95 34
	jmp	.LBB124_5
.Ltmp897:
.Lfunc_end124:
	.size	_ZN4core4iter8adapters3map12map_try_fold28_$u7b$$u7b$closure$u7d$$u7d$17hca7e4d4b368e08bfE, .Lfunc_end124-_ZN4core4iter8adapters3map12map_try_fold28_$u7b$$u7b$closure$u7d$$u7d$17hca7e4d4b368e08bfE
	.cfi_endproc
	.section	".gcc_except_table._ZN4core4iter8adapters3map12map_try_fold28_$u7b$$u7b$closure$u7d$$u7d$17hca7e4d4b368e08bfE","a",@progbits
	.p2align	2, 0x0
GCC_except_table124:
.Lexception22:
	.byte	255
	.byte	255
	.byte	1
	.uleb128 .Lcst_end22-.Lcst_begin22
.Lcst_begin22:
	.uleb128 .Ltmp891-.Lfunc_begin124
	.uleb128 .Ltmp894-.Ltmp891
	.uleb128 .Ltmp895-.Lfunc_begin124
	.byte	0
	.uleb128 .Ltmp894-.Lfunc_begin124
	.uleb128 .Lfunc_end124-.Ltmp894
	.byte	0
	.byte	0
.Lcst_end22:
	.p2align	2, 0x0

	.section	".text._ZN4core5slice29_$LT$impl$u20$$u5b$T$u5d$$GT$15copy_from_slice17h78e62450f05e1175E","ax",@progbits
	.p2align	4, 0x90
	.type	_ZN4core5slice29_$LT$impl$u20$$u5b$T$u5d$$GT$15copy_from_slice17h78e62450f05e1175E,@function
_ZN4core5slice29_$LT$impl$u20$$u5b$T$u5d$$GT$15copy_from_slice17h78e62450f05e1175E:
.Lfunc_begin125:
	.loc	32 3675 0 is_stmt 1
	.cfi_startproc
	subq	$104, %rsp
	.cfi_def_cfa_offset 112
	movq	%rdi, 8(%rsp)
	movq	%rsi, 16(%rsp)
	movq	%rdx, 24(%rsp)
	movq	%rcx, 32(%rsp)
	movq	%r8, 40(%rsp)
	movq	%rdi, 48(%rsp)
	movq	%rsi, 56(%rsp)
	movq	%rdx, 64(%rsp)
	movq	%rcx, 72(%rsp)
.Ltmp898:
	.loc	32 3691 12 prologue_end
	movq	%rsi, 80(%rsp)
	cmpq	%rcx, %rsi
	jne	.LBB125_2
	.loc	32 0 12 is_stmt 0
	movq	8(%rsp), %rax
	movq	24(%rsp), %rcx
.Ltmp899:
	.loc	32 749 9 is_stmt 1
	movq	%rcx, 88(%rsp)
.Ltmp900:
	.loc	32 780 9
	movq	%rax, 96(%rsp)
.Ltmp901:
	.loc	3 76 35
	jmp	.LBB125_3
.Ltmp902:
.LBB125_2:
	.loc	3 0 35 is_stmt 0
	movq	40(%rsp), %rdx
	movq	32(%rsp), %rsi
	movq	16(%rsp), %rdi
	.loc	32 3692 13 is_stmt 1
	movq	_ZN4core5slice29_$LT$impl$u20$$u5b$T$u5d$$GT$15copy_from_slice17len_mismatch_fail17h56297fa97d8a4e11E@GOTPCREL(%rip), %rax
	callq	*%rax
.LBB125_3:
	.loc	32 0 13 is_stmt 0
	movq	24(%rsp), %rsi
	movq	8(%rsp), %rdi
	movq	16(%rsp), %rdx
.Ltmp903:
	.loc	44 3375 14 is_stmt 1
	shlq	$0, %rdx
	callq	memcpy@PLT
.Ltmp904:
	.loc	32 3701 6 epilogue_begin
	addq	$104, %rsp
	.cfi_def_cfa_offset 8
	retq
.Ltmp905:
.Lfunc_end125:
	.size	_ZN4core5slice29_$LT$impl$u20$$u5b$T$u5d$$GT$15copy_from_slice17h78e62450f05e1175E, .Lfunc_end125-_ZN4core5slice29_$LT$impl$u20$$u5b$T$u5d$$GT$15copy_from_slice17h78e62450f05e1175E
	.cfi_endproc

	.section	".text._ZN4core5slice29_$LT$impl$u20$$u5b$T$u5d$$GT$22split_at_mut_unchecked17h2f07cfb5e754fe3fE","ax",@progbits
	.p2align	4, 0x90
	.type	_ZN4core5slice29_$LT$impl$u20$$u5b$T$u5d$$GT$22split_at_mut_unchecked17h2f07cfb5e754fe3fE,@function
_ZN4core5slice29_$LT$impl$u20$$u5b$T$u5d$$GT$22split_at_mut_unchecked17h2f07cfb5e754fe3fE:
.Lfunc_begin126:
	.loc	32 2017 0
	.cfi_startproc
	subq	$32, %rsp
	.cfi_def_cfa_offset 40
	movq	%rcx, -128(%rsp)
	movq	%rdx, -120(%rsp)
	movq	%rsi, -112(%rsp)
	movq	%rdi, -104(%rsp)
	movq	%rdi, -96(%rsp)
	movq	%rsi, -24(%rsp)
	movq	%rdx, -16(%rsp)
	movq	%rcx, -8(%rsp)
.Ltmp906:
	.loc	32 2018 19 prologue_end
	movq	%rdx, (%rsp)
.Ltmp907:
	.loc	32 780 9
	movq	%rsi, 8(%rsp)
.Ltmp908:
	.loc	32 0 9 is_stmt 0
	movq	-128(%rsp), %rax
	movq	-112(%rsp), %rcx
.Ltmp909:
	.loc	32 2033 36 is_stmt 1
	movq	%rcx, 16(%rsp)
	.loc	32 2033 41 is_stmt 0
	movq	%rax, 24(%rsp)
	.loc	32 0 41
	movq	-128(%rsp), %rcx
	movq	-120(%rsp), %rax
	movq	-112(%rsp), %rdx
.Ltmp910:
	.file	55 "/rustc/90b35a6239c3d8bdabc530a6a0816f7ff89a0aaf/library/core/src/ptr" "metadata.rs"
	.loc	55 129 5 is_stmt 1
	movq	%rdx, -40(%rsp)
	movq	%rcx, -32(%rsp)
.Ltmp911:
	.loc	52 193 9
	movq	-40(%rsp), %rdi
	movq	-32(%rsp), %rsi
	movq	%rdi, -88(%rsp)
	movq	%rsi, -80(%rsp)
.Ltmp912:
	.loc	32 2034 36
	movq	%rdx, -64(%rsp)
	.loc	32 2034 44 is_stmt 0
	movq	%rcx, -56(%rsp)
.Ltmp913:
	.loc	17 1005 18 is_stmt 1
	addq	%rcx, %rdx
	movq	%rdx, -72(%rsp)
.Ltmp914:
	.loc	32 2034 50
	subq	%rcx, %rax
	movq	%rax, -48(%rsp)
	.loc	32 0 50 is_stmt 0
	movq	-96(%rsp), %rax
	movq	-104(%rsp), %rcx
.Ltmp915:
	.loc	55 129 5 is_stmt 1
	movq	-72(%rsp), %rsi
	movq	-48(%rsp), %rdx
.Ltmp916:
	.loc	32 2032 13
	movq	-88(%rsp), %r8
	movq	-80(%rsp), %rdi
	movq	%r8, (%rcx)
	movq	%rdi, 8(%rcx)
	movq	%rsi, 16(%rcx)
	movq	%rdx, 24(%rcx)
.Ltmp917:
	.loc	32 2037 6 epilogue_begin
	addq	$32, %rsp
	.cfi_def_cfa_offset 8
	retq
.Ltmp918:
.Lfunc_end126:
	.size	_ZN4core5slice29_$LT$impl$u20$$u5b$T$u5d$$GT$22split_at_mut_unchecked17h2f07cfb5e754fe3fE, .Lfunc_end126-_ZN4core5slice29_$LT$impl$u20$$u5b$T$u5d$$GT$22split_at_mut_unchecked17h2f07cfb5e754fe3fE
	.cfi_endproc

	.section	".text._ZN4core5slice29_$LT$impl$u20$$u5b$T$u5d$$GT$8contains17h9d087d0c4d5b13fcE","ax",@progbits
	.p2align	4, 0x90
	.type	_ZN4core5slice29_$LT$impl$u20$$u5b$T$u5d$$GT$8contains17h9d087d0c4d5b13fcE,@function
_ZN4core5slice29_$LT$impl$u20$$u5b$T$u5d$$GT$8contains17h9d087d0c4d5b13fcE:
.Lfunc_begin127:
	.loc	32 2515 0
	.cfi_startproc
	subq	$40, %rsp
	.cfi_def_cfa_offset 48
	movq	%rdx, 8(%rsp)
	movq	%rsi, %rdx
	movq	%rdi, %rsi
	movq	8(%rsp), %rdi
	movq	%rsi, 16(%rsp)
	movq	%rdx, 24(%rsp)
	movq	%rdi, 32(%rsp)
.Ltmp919:
	.loc	32 2519 9 prologue_end
	callq	_ZN53_$LT$T$u20$as$u20$core..slice..cmp..SliceContains$GT$14slice_contains17h5dc2b248c9f7c557E
	.loc	32 2520 6
	andb	$1, %al
	.loc	32 2520 6 epilogue_begin is_stmt 0
	addq	$40, %rsp
	.cfi_def_cfa_offset 8
	retq
.Ltmp920:
.Lfunc_end127:
	.size	_ZN4core5slice29_$LT$impl$u20$$u5b$T$u5d$$GT$8contains17h9d087d0c4d5b13fcE, .Lfunc_end127-_ZN4core5slice29_$LT$impl$u20$$u5b$T$u5d$$GT$8contains17h9d087d0c4d5b13fcE
	.cfi_endproc

	.section	.text._ZN4core5slice3raw14from_raw_parts18precondition_check17hb3b741e25916df75E,"ax",@progbits
	.p2align	4, 0x90
	.type	_ZN4core5slice3raw14from_raw_parts18precondition_check17hb3b741e25916df75E,@function
_ZN4core5slice3raw14from_raw_parts18precondition_check17hb3b741e25916df75E:
.Lfunc_begin128:
	.loc	3 68 0 is_stmt 1
	.cfi_startproc
	.cfi_personality 155, DW.ref.rust_eh_personality
	.cfi_lsda 27, .Lexception23
	subq	$168, %rsp
	.cfi_def_cfa_offset 176
	movq	%rdi, 16(%rsp)
	movq	%rsi, 24(%rsp)
	movq	%rdx, 32(%rsp)
	movq	%rcx, 40(%rsp)
	movq	%rdi, 104(%rsp)
	movq	%rsi, 112(%rsp)
	movq	%rdx, 120(%rsp)
	movq	%rcx, 128(%rsp)
.Ltmp926:
	.loc	35 337 44 prologue_end
	leaq	.L__unnamed_18(%rip), %rax
	movq	%rax, 136(%rsp)
.Ltmp927:
	.loc	52 135 48
	movq	%rdi, 144(%rsp)
.Ltmp928:
	.loc	7 54 28
	movq	%rdi, 152(%rsp)
.Ltmp929:
	.loc	3 120 6
	cmpq	$0, %rdi
	jne	.LBB128_2
.Ltmp930:
	.loc	52 135 13
	jmp	.LBB128_3
.LBB128_2:
	.loc	52 0 13 is_stmt 0
	movq	32(%rsp), %rcx
.Ltmp931:
	.loc	43 85 20 is_stmt 1
	movq	%rcx, %rax
	shrq	%rax
	movabsq	$6148914691236517205, %rdx
	andq	%rdx, %rax
	subq	%rax, %rcx
	movabsq	$3689348814741910323, %rdx
	movq	%rcx, %rax
	andq	%rdx, %rax
	shrq	$2, %rcx
	andq	%rdx, %rcx
	addq	%rcx, %rax
	movq	%rax, %rcx
	shrq	$4, %rcx
	addq	%rcx, %rax
	movabsq	$1085102592571150095, %rcx
	andq	%rcx, %rax
	movabsq	$72340172838076673, %rcx
	imulq	%rcx, %rax
	shrq	$56, %rax
	movl	%eax, 164(%rsp)
.Ltmp932:
	.loc	7 1602 13
	cmpl	$1, 164(%rsp)
	je	.LBB128_4
	jmp	.LBB128_5
.Ltmp933:
.LBB128_3:
	.loc	25 0 0 is_stmt 0
	jmp	.LBB128_7
.LBB128_4:
	movq	16(%rsp), %rax
	movq	32(%rsp), %rcx
.Ltmp934:
	.loc	7 1608 26 is_stmt 1
	subq	$1, %rcx
	.loc	7 1608 13 is_stmt 0
	andq	%rcx, %rax
	cmpq	$0, %rax
.Ltmp935:
	.loc	52 135 13 is_stmt 1
	je	.LBB128_6
	jmp	.LBB128_3
.LBB128_5:
.Ltmp936:
	.loc	35 339 9
	leaq	.L__unnamed_18(%rip), %rax
	movq	%rax, 48(%rsp)
	movq	$1, 56(%rsp)
	movq	.L__unnamed_8(%rip), %rcx
	movq	.L__unnamed_8+8(%rip), %rax
	movq	%rcx, 80(%rsp)
	movq	%rax, 88(%rsp)
	movq	$8, 64(%rsp)
	movq	$0, 72(%rsp)
.Ltmp937:
.Ltmp921:
	.loc	7 1603 13
	leaq	.L__unnamed_19(%rip), %rsi
	movq	_ZN4core9panicking9panic_fmt17h0c3082644d1bf418E@GOTPCREL(%rip), %rax
	leaq	48(%rsp), %rdi
	callq	*%rax
.Ltmp922:
	jmp	.LBB128_14
.Ltmp938:
.LBB128_6:
	.loc	7 0 13 is_stmt 0
	movq	24(%rsp), %rax
.Ltmp939:
	.loc	3 125 22 is_stmt 1
	cmpq	$0, %rax
	sete	%cl
	movb	%cl, 15(%rsp)
	cmpq	$0, %rax
	je	.LBB128_8
	jmp	.LBB128_9
.Ltmp940:
.LBB128_7:
	.loc	3 70 21
	leaq	.L__unnamed_20(%rip), %rdi
	movq	_ZN4core9panicking14panic_nounwind17hd0dad372654c389aE@GOTPCREL(%rip), %rax
	movl	$162, %esi
	callq	*%rax
.LBB128_8:
.Ltmp941:
	.loc	3 125 34
	movq	$-1, 96(%rsp)
	.loc	3 125 19 is_stmt 0
	jmp	.LBB128_10
.LBB128_9:
	.loc	3 0 19
	movb	15(%rsp), %al
	.loc	3 125 54
	testb	$1, %al
	jne	.LBB128_12
	jmp	.LBB128_11
.LBB128_10:
	.loc	3 0 54
	movq	40(%rsp), %rax
.Ltmp942:
	.loc	3 126 5 is_stmt 1
	cmpq	96(%rsp), %rax
.Ltmp943:
	.loc	52 136 20
	jbe	.LBB128_16
	jmp	.LBB128_15
.LBB128_11:
	.loc	52 0 20 is_stmt 0
	movq	24(%rsp), %rcx
.Ltmp944:
	.loc	3 125 54 is_stmt 1
	movabsq	$9223372036854775807, %rax
	xorl	%edx, %edx
	divq	%rcx
	movq	%rax, 96(%rsp)
	.loc	3 125 19 is_stmt 0
	jmp	.LBB128_10
.LBB128_12:
.Ltmp923:
	.loc	3 125 54
	leaq	.L__unnamed_21(%rip), %rdi
	movq	_ZN4core9panicking11panic_const23panic_const_div_by_zero17h80fc355940c12604E@GOTPCREL(%rip), %rax
	callq	*%rax
.Ltmp924:
	jmp	.LBB128_14
.Ltmp945:
.LBB128_13:
.Ltmp925:
	.loc	3 68 13 is_stmt 1
	movq	_ZN4core9panicking19panic_cannot_unwind17h65aefd062253eb19E@GOTPCREL(%rip), %rax
	callq	*%rax
.LBB128_14:
	.loc	3 0 13 is_stmt 0
	ud2
.LBB128_15:
	jmp	.LBB128_7
.LBB128_16:
	.loc	3 74 14 epilogue_begin is_stmt 1
	addq	$168, %rsp
	.cfi_def_cfa_offset 8
	retq
.Ltmp946:
.Lfunc_end128:
	.size	_ZN4core5slice3raw14from_raw_parts18precondition_check17hb3b741e25916df75E, .Lfunc_end128-_ZN4core5slice3raw14from_raw_parts18precondition_check17hb3b741e25916df75E
	.cfi_endproc
	.section	.gcc_except_table._ZN4core5slice3raw14from_raw_parts18precondition_check17hb3b741e25916df75E,"a",@progbits
	.p2align	2, 0x0
GCC_except_table128:
.Lexception23:
	.byte	255
	.byte	155
	.uleb128 .Lttbase14-.Lttbaseref14
.Lttbaseref14:
	.byte	1
	.uleb128 .Lcst_end23-.Lcst_begin23
.Lcst_begin23:
	.uleb128 .Ltmp921-.Lfunc_begin128
	.uleb128 .Ltmp922-.Ltmp921
	.uleb128 .Ltmp925-.Lfunc_begin128
	.byte	1
	.uleb128 .Ltmp922-.Lfunc_begin128
	.uleb128 .Ltmp923-.Ltmp922
	.byte	0
	.byte	0
	.uleb128 .Ltmp923-.Lfunc_begin128
	.uleb128 .Ltmp924-.Ltmp923
	.uleb128 .Ltmp925-.Lfunc_begin128
	.byte	1
	.uleb128 .Ltmp924-.Lfunc_begin128
	.uleb128 .Lfunc_end128-.Ltmp924
	.byte	0
	.byte	0
.Lcst_end23:
	.byte	127
	.byte	0
	.p2align	2, 0x0
.Lttbase14:
	.byte	0
	.p2align	2, 0x0

	.section	.text._ZN4core5slice3raw18from_raw_parts_mut18precondition_check17h425b0dd1e04d3236E,"ax",@progbits
	.p2align	4, 0x90
	.type	_ZN4core5slice3raw18from_raw_parts_mut18precondition_check17h425b0dd1e04d3236E,@function
_ZN4core5slice3raw18from_raw_parts_mut18precondition_check17h425b0dd1e04d3236E:
.Lfunc_begin129:
	.loc	3 68 0
	.cfi_startproc
	.cfi_personality 155, DW.ref.rust_eh_personality
	.cfi_lsda 27, .Lexception24
	subq	$168, %rsp
	.cfi_def_cfa_offset 176
	movq	%rdi, 16(%rsp)
	movq	%rsi, 24(%rsp)
	movq	%rdx, 32(%rsp)
	movq	%rcx, 40(%rsp)
	movq	%rdi, 104(%rsp)
	movq	%rsi, 112(%rsp)
	movq	%rdx, 120(%rsp)
	movq	%rcx, 128(%rsp)
.Ltmp952:
	.loc	35 337 44 prologue_end
	leaq	.L__unnamed_18(%rip), %rax
	movq	%rax, 136(%rsp)
.Ltmp953:
	.loc	52 190 48
	movq	%rdi, 144(%rsp)
.Ltmp954:
	.loc	7 54 28
	movq	%rdi, 152(%rsp)
.Ltmp955:
	.loc	3 120 6
	cmpq	$0, %rdi
	jne	.LBB129_2
.Ltmp956:
	.loc	52 190 13
	jmp	.LBB129_3
.LBB129_2:
	.loc	52 0 13 is_stmt 0
	movq	32(%rsp), %rcx
.Ltmp957:
	.loc	43 85 20 is_stmt 1
	movq	%rcx, %rax
	shrq	%rax
	movabsq	$6148914691236517205, %rdx
	andq	%rdx, %rax
	subq	%rax, %rcx
	movabsq	$3689348814741910323, %rdx
	movq	%rcx, %rax
	andq	%rdx, %rax
	shrq	$2, %rcx
	andq	%rdx, %rcx
	addq	%rcx, %rax
	movq	%rax, %rcx
	shrq	$4, %rcx
	addq	%rcx, %rax
	movabsq	$1085102592571150095, %rcx
	andq	%rcx, %rax
	movabsq	$72340172838076673, %rcx
	imulq	%rcx, %rax
	shrq	$56, %rax
	movl	%eax, 164(%rsp)
.Ltmp958:
	.loc	7 1602 13
	cmpl	$1, 164(%rsp)
	je	.LBB129_4
	jmp	.LBB129_5
.Ltmp959:
.LBB129_3:
	.loc	25 0 0 is_stmt 0
	jmp	.LBB129_7
.LBB129_4:
	movq	16(%rsp), %rax
	movq	32(%rsp), %rcx
.Ltmp960:
	.loc	7 1608 26 is_stmt 1
	subq	$1, %rcx
	.loc	7 1608 13 is_stmt 0
	andq	%rcx, %rax
	cmpq	$0, %rax
.Ltmp961:
	.loc	52 190 13 is_stmt 1
	je	.LBB129_6
	jmp	.LBB129_3
.LBB129_5:
.Ltmp962:
	.loc	35 339 9
	leaq	.L__unnamed_18(%rip), %rax
	movq	%rax, 48(%rsp)
	movq	$1, 56(%rsp)
	movq	.L__unnamed_8(%rip), %rcx
	movq	.L__unnamed_8+8(%rip), %rax
	movq	%rcx, 80(%rsp)
	movq	%rax, 88(%rsp)
	movq	$8, 64(%rsp)
	movq	$0, 72(%rsp)
.Ltmp963:
.Ltmp947:
	.loc	7 1603 13
	leaq	.L__unnamed_19(%rip), %rsi
	movq	_ZN4core9panicking9panic_fmt17h0c3082644d1bf418E@GOTPCREL(%rip), %rax
	leaq	48(%rsp), %rdi
	callq	*%rax
.Ltmp948:
	jmp	.LBB129_14
.Ltmp964:
.LBB129_6:
	.loc	7 0 13 is_stmt 0
	movq	24(%rsp), %rax
.Ltmp965:
	.loc	3 125 22 is_stmt 1
	cmpq	$0, %rax
	sete	%cl
	movb	%cl, 15(%rsp)
	cmpq	$0, %rax
	je	.LBB129_8
	jmp	.LBB129_9
.Ltmp966:
.LBB129_7:
	.loc	3 70 21
	leaq	.L__unnamed_22(%rip), %rdi
	movq	_ZN4core9panicking14panic_nounwind17hd0dad372654c389aE@GOTPCREL(%rip), %rax
	movl	$166, %esi
	callq	*%rax
.LBB129_8:
.Ltmp967:
	.loc	3 125 34
	movq	$-1, 96(%rsp)
	.loc	3 125 19 is_stmt 0
	jmp	.LBB129_10
.LBB129_9:
	.loc	3 0 19
	movb	15(%rsp), %al
	.loc	3 125 54
	testb	$1, %al
	jne	.LBB129_12
	jmp	.LBB129_11
.LBB129_10:
	.loc	3 0 54
	movq	40(%rsp), %rax
.Ltmp968:
	.loc	3 126 5 is_stmt 1
	cmpq	96(%rsp), %rax
.Ltmp969:
	.loc	52 191 20
	jbe	.LBB129_16
	jmp	.LBB129_15
.LBB129_11:
	.loc	52 0 20 is_stmt 0
	movq	24(%rsp), %rcx
.Ltmp970:
	.loc	3 125 54 is_stmt 1
	movabsq	$9223372036854775807, %rax
	xorl	%edx, %edx
	divq	%rcx
	movq	%rax, 96(%rsp)
	.loc	3 125 19 is_stmt 0
	jmp	.LBB129_10
.LBB129_12:
.Ltmp949:
	.loc	3 125 54
	leaq	.L__unnamed_21(%rip), %rdi
	movq	_ZN4core9panicking11panic_const23panic_const_div_by_zero17h80fc355940c12604E@GOTPCREL(%rip), %rax
	callq	*%rax
.Ltmp950:
	jmp	.LBB129_14
.Ltmp971:
.LBB129_13:
.Ltmp951:
	.loc	3 68 13 is_stmt 1
	movq	_ZN4core9panicking19panic_cannot_unwind17h65aefd062253eb19E@GOTPCREL(%rip), %rax
	callq	*%rax
.LBB129_14:
	.loc	3 0 13 is_stmt 0
	ud2
.LBB129_15:
	jmp	.LBB129_7
.LBB129_16:
	.loc	3 74 14 epilogue_begin is_stmt 1
	addq	$168, %rsp
	.cfi_def_cfa_offset 8
	retq
.Ltmp972:
.Lfunc_end129:
	.size	_ZN4core5slice3raw18from_raw_parts_mut18precondition_check17h425b0dd1e04d3236E, .Lfunc_end129-_ZN4core5slice3raw18from_raw_parts_mut18precondition_check17h425b0dd1e04d3236E
	.cfi_endproc
	.section	.gcc_except_table._ZN4core5slice3raw18from_raw_parts_mut18precondition_check17h425b0dd1e04d3236E,"a",@progbits
	.p2align	2, 0x0
GCC_except_table129:
.Lexception24:
	.byte	255
	.byte	155
	.uleb128 .Lttbase15-.Lttbaseref15
.Lttbaseref15:
	.byte	1
	.uleb128 .Lcst_end24-.Lcst_begin24
.Lcst_begin24:
	.uleb128 .Ltmp947-.Lfunc_begin129
	.uleb128 .Ltmp948-.Ltmp947
	.uleb128 .Ltmp951-.Lfunc_begin129
	.byte	1
	.uleb128 .Ltmp948-.Lfunc_begin129
	.uleb128 .Ltmp949-.Ltmp948
	.byte	0
	.byte	0
	.uleb128 .Ltmp949-.Lfunc_begin129
	.uleb128 .Ltmp950-.Ltmp949
	.uleb128 .Ltmp951-.Lfunc_begin129
	.byte	1
	.uleb128 .Ltmp950-.Lfunc_begin129
	.uleb128 .Lfunc_end129-.Ltmp950
	.byte	0
	.byte	0
.Lcst_end24:
	.byte	127
	.byte	0
	.p2align	2, 0x0
.Lttbase15:
	.byte	0
	.p2align	2, 0x0

	.section	".text._ZN4core5slice4iter87_$LT$impl$u20$core..iter..traits..collect..IntoIterator$u20$for$u20$$RF$$u5b$T$u5d$$GT$9into_iter17h5f9f14e6c65844f9E","ax",@progbits
	.p2align	4, 0x90
	.type	_ZN4core5slice4iter87_$LT$impl$u20$core..iter..traits..collect..IntoIterator$u20$for$u20$$RF$$u5b$T$u5d$$GT$9into_iter17h5f9f14e6c65844f9E,@function
_ZN4core5slice4iter87_$LT$impl$u20$core..iter..traits..collect..IntoIterator$u20$for$u20$$RF$$u5b$T$u5d$$GT$9into_iter17h5f9f14e6c65844f9E:
.Lfunc_begin130:
	.loc	50 25 0
	.cfi_startproc
	movq	%rdi, -80(%rsp)
	movq	%rsi, -72(%rsp)
	movq	%rdi, -56(%rsp)
	movq	%rsi, -48(%rsp)
.Ltmp973:
	.loc	50 91 19 prologue_end
	movq	%rsi, -40(%rsp)
.Ltmp974:
	.loc	5 1767 18
	movq	%rdi, -32(%rsp)
	movq	%rsi, -24(%rsp)
.Ltmp975:
	.loc	5 427 18
	movq	%rdi, -16(%rsp)
.Ltmp976:
	.loc	5 0 18 is_stmt 0
	movq	-80(%rsp), %rax
	movq	-72(%rsp), %rcx
.Ltmp977:
	.loc	5 329 9 is_stmt 1
	movq	%rax, -8(%rsp)
.Ltmp978:
	.loc	17 1005 18
	shlq	$4, %rcx
	addq	%rcx, %rax
.Ltmp979:
	.loc	50 96 63
	movq	%rax, -64(%rsp)
	.loc	50 0 63 is_stmt 0
	movq	-80(%rsp), %rax
.Ltmp980:
	.loc	50 98 25 is_stmt 1
	movq	-64(%rsp), %rdx
.Ltmp981:
	.loc	50 27 6
	retq
.Ltmp982:
.Lfunc_end130:
	.size	_ZN4core5slice4iter87_$LT$impl$u20$core..iter..traits..collect..IntoIterator$u20$for$u20$$RF$$u5b$T$u5d$$GT$9into_iter17h5f9f14e6c65844f9E, .Lfunc_end130-_ZN4core5slice4iter87_$LT$impl$u20$core..iter..traits..collect..IntoIterator$u20$for$u20$$RF$$u5b$T$u5d$$GT$9into_iter17h5f9f14e6c65844f9E
	.cfi_endproc

	.section	".text._ZN4core5slice4iter87_$LT$impl$u20$core..iter..traits..collect..IntoIterator$u20$for$u20$$RF$$u5b$T$u5d$$GT$9into_iter17hf10b4be925368bf4E","ax",@progbits
	.p2align	4, 0x90
	.type	_ZN4core5slice4iter87_$LT$impl$u20$core..iter..traits..collect..IntoIterator$u20$for$u20$$RF$$u5b$T$u5d$$GT$9into_iter17hf10b4be925368bf4E,@function
_ZN4core5slice4iter87_$LT$impl$u20$core..iter..traits..collect..IntoIterator$u20$for$u20$$RF$$u5b$T$u5d$$GT$9into_iter17hf10b4be925368bf4E:
.Lfunc_begin131:
	.loc	50 25 0
	.cfi_startproc
	movq	%rdi, -80(%rsp)
	movq	%rsi, -72(%rsp)
	movq	%rdi, -56(%rsp)
	movq	%rsi, -48(%rsp)
.Ltmp983:
	.loc	50 91 19 prologue_end
	movq	%rsi, -40(%rsp)
.Ltmp984:
	.loc	5 1767 18
	movq	%rdi, -32(%rsp)
	movq	%rsi, -24(%rsp)
.Ltmp985:
	.loc	5 427 18
	movq	%rdi, -16(%rsp)
.Ltmp986:
	.loc	5 0 18 is_stmt 0
	movq	-80(%rsp), %rax
	movq	-72(%rsp), %rcx
.Ltmp987:
	.loc	5 329 9 is_stmt 1
	movq	%rax, -8(%rsp)
.Ltmp988:
	.loc	17 1005 18
	shlq	$5, %rcx
	addq	%rcx, %rax
.Ltmp989:
	.loc	50 96 63
	movq	%rax, -64(%rsp)
	.loc	50 0 63 is_stmt 0
	movq	-80(%rsp), %rax
.Ltmp990:
	.loc	50 98 25 is_stmt 1
	movq	-64(%rsp), %rdx
.Ltmp991:
	.loc	50 27 6
	retq
.Ltmp992:
.Lfunc_end131:
	.size	_ZN4core5slice4iter87_$LT$impl$u20$core..iter..traits..collect..IntoIterator$u20$for$u20$$RF$$u5b$T$u5d$$GT$9into_iter17hf10b4be925368bf4E, .Lfunc_end131-_ZN4core5slice4iter87_$LT$impl$u20$core..iter..traits..collect..IntoIterator$u20$for$u20$$RF$$u5b$T$u5d$$GT$9into_iter17hf10b4be925368bf4E
	.cfi_endproc

	.section	.text._ZN4core5slice6memchr6memchr17h599bdf5ae32f543bE,"ax",@progbits
	.p2align	4, 0x90
	.type	_ZN4core5slice6memchr6memchr17h599bdf5ae32f543bE,@function
_ZN4core5slice6memchr6memchr17h599bdf5ae32f543bE:
.Lfunc_begin132:
	.file	56 "/rustc/90b35a6239c3d8bdabc530a6a0816f7ff89a0aaf/library/core/src/slice" "memchr.rs"
	.loc	56 27 0
	.cfi_startproc
	subq	$88, %rsp
	.cfi_def_cfa_offset 96
	movq	%rdx, 16(%rsp)
	movq	%rsi, 24(%rsp)
	movb	%dil, %al
	movb	%al, 39(%rsp)
	movb	%al, 71(%rsp)
	movq	%rsi, 72(%rsp)
	movq	%rdx, 80(%rsp)
.Ltmp993:
	.loc	56 29 8 prologue_end
	cmpq	$16, %rdx
	jb	.LBB132_2
	.loc	56 0 8 is_stmt 0
	movq	16(%rsp), %rdx
	movq	24(%rsp), %rsi
	movb	39(%rsp), %al
	.loc	56 33 5 is_stmt 1
	movzbl	%al, %edi
	callq	*_ZN4core5slice6memchr14memchr_aligned17hf6aa57362cec11a2E@GOTPCREL(%rip)
	movq	%rax, 40(%rsp)
	movq	%rdx, 48(%rsp)
	jmp	.LBB132_3
.LBB132_2:
.Ltmp994:
	.loc	56 39 17
	movq	$0, 56(%rsp)
.Ltmp995:
	.loc	56 42 5
	jmp	.LBB132_4
.Ltmp996:
.LBB132_3:
	.loc	56 34 2
	movq	40(%rsp), %rax
	movq	48(%rsp), %rdx
	.loc	56 34 2 epilogue_begin is_stmt 0
	addq	$88, %rsp
	.cfi_def_cfa_offset 8
	retq
.LBB132_4:
	.cfi_def_cfa_offset 96
	.loc	56 0 2
	movq	16(%rsp), %rax
.Ltmp997:
	.loc	56 42 11 is_stmt 1
	cmpq	%rax, 56(%rsp)
	jb	.LBB132_6
	.loc	56 50 5
	movq	.L__unnamed_8(%rip), %rcx
	movq	.L__unnamed_8+8(%rip), %rax
	movq	%rcx, 40(%rsp)
	movq	%rax, 48(%rsp)
.Ltmp998:
	.loc	56 51 2
	jmp	.LBB132_7
.LBB132_6:
	.loc	56 0 2 is_stmt 0
	movq	16(%rsp), %rcx
.Ltmp999:
	.loc	56 43 17 is_stmt 1
	movq	56(%rsp), %rax
	movq	%rax, 8(%rsp)
	.loc	56 43 12 is_stmt 0
	cmpq	%rcx, %rax
	jb	.LBB132_8
	jmp	.LBB132_9
.Ltmp1000:
.LBB132_7:
	.loc	56 34 2 is_stmt 1
	jmp	.LBB132_3
.LBB132_8:
	.loc	56 0 2 is_stmt 0
	movq	24(%rsp), %rax
	movq	8(%rsp), %rcx
	movb	39(%rsp), %dl
.Ltmp1001:
	.loc	56 43 12 is_stmt 1
	cmpb	%dl, (%rax,%rcx)
	je	.LBB132_11
	jmp	.LBB132_10
.LBB132_9:
	.loc	56 0 12 is_stmt 0
	movq	16(%rsp), %rsi
	movq	8(%rsp), %rdi
	.loc	56 43 12
	leaq	.L__unnamed_23(%rip), %rdx
	movq	_ZN4core9panicking18panic_bounds_check17h8307ccead484a122E@GOTPCREL(%rip), %rax
	callq	*%rax
.LBB132_10:
	.loc	56 47 9 is_stmt 1
	movq	56(%rsp), %rax
	addq	$1, %rax
	movq	%rax, 56(%rsp)
	.loc	56 42 5
	jmp	.LBB132_4
.LBB132_11:
	.loc	56 44 25
	movq	56(%rsp), %rax
	.loc	56 44 20 is_stmt 0
	movq	%rax, 48(%rsp)
	movq	$1, 40(%rsp)
.Ltmp1002:
	.loc	56 51 2 is_stmt 1
	jmp	.LBB132_7
.Ltmp1003:
.Lfunc_end132:
